
tp07.elf:     formato del fichero elf32-littlearm


Desensamblado de la sección boot:

70010000 <_start>:
70010000:	e59f0344 	ldr	r0, [pc, #836]	@ 7001034c <ciclo_escritura_descriptores_64KB_2+0x50>
70010004:	e59f1344 	ldr	r1, [pc, #836]	@ 70010350 <ciclo_escritura_descriptores_64KB_2+0x54>
70010008:	f102001b 	cps	#27
7001000c:	e59fd340 	ldr	sp, [pc, #832]	@ 70010354 <ciclo_escritura_descriptores_64KB_2+0x58>
70010010:	f1020013 	cps	#19
70010014:	e59fd33c 	ldr	sp, [pc, #828]	@ 70010358 <ciclo_escritura_descriptores_64KB_2+0x5c>
70010018:	f1020017 	cps	#23
7001001c:	e59fd338 	ldr	sp, [pc, #824]	@ 7001035c <ciclo_escritura_descriptores_64KB_2+0x60>
70010020:	f1020011 	cps	#17
70010024:	e59fd334 	ldr	sp, [pc, #820]	@ 70010360 <ciclo_escritura_descriptores_64KB_2+0x64>
70010028:	f1020012 	cps	#18
7001002c:	e59fd330 	ldr	sp, [pc, #816]	@ 70010364 <ciclo_escritura_descriptores_64KB_2+0x68>
70010030:	f102001f 	cps	#31
70010034:	e59fd310 	ldr	sp, [pc, #784]	@ 7001034c <ciclo_escritura_descriptores_64KB_2+0x50>

70010038 <reset_copy>:
70010038:	e59f0328 	ldr	r0, [pc, #808]	@ 70010368 <ciclo_escritura_descriptores_64KB_2+0x6c>
7001003c:	e59f1328 	ldr	r1, [pc, #808]	@ 7001036c <ciclo_escritura_descriptores_64KB_2+0x70>
70010040:	e59f2328 	ldr	r2, [pc, #808]	@ 70010370 <ciclo_escritura_descriptores_64KB_2+0x74>
70010044:	e0422000 	sub	r2, r2, r0

70010048 <byte_copy>:
70010048:	e4d13001 	ldrb	r3, [r1], #1
7001004c:	e4c03001 	strb	r3, [r0], #1
70010050:	e2522001 	subs	r2, r2, #1
70010054:	1afffffb 	bne	70010048 <byte_copy>

70010058 <data_copy>:
70010058:	e59f0314 	ldr	r0, [pc, #788]	@ 70010374 <ciclo_escritura_descriptores_64KB_2+0x78>
7001005c:	e59f1314 	ldr	r1, [pc, #788]	@ 70010378 <ciclo_escritura_descriptores_64KB_2+0x7c>
70010060:	e59f2314 	ldr	r2, [pc, #788]	@ 7001037c <ciclo_escritura_descriptores_64KB_2+0x80>
70010064:	e0422000 	sub	r2, r2, r0

70010068 <byte_copy1>:
70010068:	e4d13001 	ldrb	r3, [r1], #1
7001006c:	e4c03001 	strb	r3, [r0], #1
70010070:	e2522001 	subs	r2, r2, #1
70010074:	1afffffb 	bne	70010068 <byte_copy1>

70010078 <text_copy>:
70010078:	e59f0300 	ldr	r0, [pc, #768]	@ 70010380 <ciclo_escritura_descriptores_64KB_2+0x84>
7001007c:	e59f1300 	ldr	r1, [pc, #768]	@ 70010384 <ciclo_escritura_descriptores_64KB_2+0x88>
70010080:	e59f2300 	ldr	r2, [pc, #768]	@ 70010388 <ciclo_escritura_descriptores_64KB_2+0x8c>
70010084:	e0422000 	sub	r2, r2, r0

70010088 <byte_copy2>:
70010088:	e4d13001 	ldrb	r3, [r1], #1
7001008c:	e4c03001 	strb	r3, [r0], #1
70010090:	e2522001 	subs	r2, r2, #1
70010094:	1afffffb 	bne	70010088 <byte_copy2>

70010098 <task1_copy>:
70010098:	e59f02ec 	ldr	r0, [pc, #748]	@ 7001038c <ciclo_escritura_descriptores_64KB_2+0x90>
7001009c:	e59f12ec 	ldr	r1, [pc, #748]	@ 70010390 <ciclo_escritura_descriptores_64KB_2+0x94>
700100a0:	e59f22ec 	ldr	r2, [pc, #748]	@ 70010394 <ciclo_escritura_descriptores_64KB_2+0x98>
700100a4:	e59f32ec 	ldr	r3, [pc, #748]	@ 70010398 <ciclo_escritura_descriptores_64KB_2+0x9c>
700100a8:	e0422003 	sub	r2, r2, r3

700100ac <byte_copy3>:
700100ac:	e4d14001 	ldrb	r4, [r1], #1
700100b0:	e4c04001 	strb	r4, [r0], #1
700100b4:	e2522001 	subs	r2, r2, #1
700100b8:	1afffffb 	bne	700100ac <byte_copy3>

700100bc <task2_copy>:
700100bc:	e59f02d8 	ldr	r0, [pc, #728]	@ 7001039c <ciclo_escritura_descriptores_64KB_2+0xa0>
700100c0:	e59f12d8 	ldr	r1, [pc, #728]	@ 700103a0 <ciclo_escritura_descriptores_64KB_2+0xa4>
700100c4:	e59f22d8 	ldr	r2, [pc, #728]	@ 700103a4 <ciclo_escritura_descriptores_64KB_2+0xa8>
700100c8:	e59f32d8 	ldr	r3, [pc, #728]	@ 700103a8 <ciclo_escritura_descriptores_64KB_2+0xac>
700100cc:	e0422003 	sub	r2, r2, r3

700100d0 <byte_copy4>:
700100d0:	e4d14001 	ldrb	r4, [r1], #1
700100d4:	e4c04001 	strb	r4, [r0], #1
700100d8:	e2522001 	subs	r2, r2, #1
700100dc:	1afffffb 	bne	700100d0 <byte_copy4>
700100e0:	e3a01482 	mov	r1, #-2113929216	@ 0x82000000
700100e4:	e3a02906 	mov	r2, #98304	@ 0x18000
700100e8:	e3a00000 	mov	r0, #0

700100ec <ciclo_borrado>:
700100ec:	e4c10001 	strb	r0, [r1], #1
700100f0:	e2522001 	subs	r2, r2, #1
700100f4:	1afffffc 	bne	700100ec <ciclo_borrado>
700100f8:	e59f02ac 	ldr	r0, [pc, #684]	@ 700103ac <ciclo_escritura_descriptores_64KB_2+0xb0>
700100fc:	e59f12ac 	ldr	r1, [pc, #684]	@ 700103b0 <ciclo_escritura_descriptores_64KB_2+0xb4>
70010100:	e5801000 	str	r1, [r0]
70010104:	e59f02a8 	ldr	r0, [pc, #680]	@ 700103b4 <ciclo_escritura_descriptores_64KB_2+0xb8>
70010108:	e59f12a8 	ldr	r1, [pc, #680]	@ 700103b8 <ciclo_escritura_descriptores_64KB_2+0xbc>
7001010c:	e5801000 	str	r1, [r0]
70010110:	e59f02a4 	ldr	r0, [pc, #676]	@ 700103bc <ciclo_escritura_descriptores_64KB_2+0xc0>
70010114:	e59f12a4 	ldr	r1, [pc, #676]	@ 700103c0 <ciclo_escritura_descriptores_64KB_2+0xc4>
70010118:	e5801000 	str	r1, [r0]
7001011c:	e59f02a0 	ldr	r0, [pc, #672]	@ 700103c4 <ciclo_escritura_descriptores_64KB_2+0xc8>
70010120:	e59f12a0 	ldr	r1, [pc, #672]	@ 700103c8 <ciclo_escritura_descriptores_64KB_2+0xcc>
70010124:	e5801000 	str	r1, [r0]
70010128:	e59f029c 	ldr	r0, [pc, #668]	@ 700103cc <ciclo_escritura_descriptores_64KB_2+0xd0>
7001012c:	e59f129c 	ldr	r1, [pc, #668]	@ 700103d0 <ciclo_escritura_descriptores_64KB_2+0xd4>
70010130:	e5801000 	str	r1, [r0]
70010134:	e59f0298 	ldr	r0, [pc, #664]	@ 700103d4 <ciclo_escritura_descriptores_64KB_2+0xd8>
70010138:	e59f1298 	ldr	r1, [pc, #664]	@ 700103d8 <ciclo_escritura_descriptores_64KB_2+0xdc>
7001013c:	e5801000 	str	r1, [r0]
70010140:	e59f0294 	ldr	r0, [pc, #660]	@ 700103dc <ciclo_escritura_descriptores_64KB_2+0xe0>
70010144:	e59f1294 	ldr	r1, [pc, #660]	@ 700103e0 <ciclo_escritura_descriptores_64KB_2+0xe4>
70010148:	e5801000 	str	r1, [r0]
7001014c:	e59f0290 	ldr	r0, [pc, #656]	@ 700103e4 <ciclo_escritura_descriptores_64KB_2+0xe8>
70010150:	e59f1290 	ldr	r1, [pc, #656]	@ 700103e8 <ciclo_escritura_descriptores_64KB_2+0xec>
70010154:	e5801000 	str	r1, [r0]
70010158:	e59f028c 	ldr	r0, [pc, #652]	@ 700103ec <ciclo_escritura_descriptores_64KB_2+0xf0>
7001015c:	e59f128c 	ldr	r1, [pc, #652]	@ 700103f0 <ciclo_escritura_descriptores_64KB_2+0xf4>
70010160:	e5801000 	str	r1, [r0]
70010164:	e59f0288 	ldr	r0, [pc, #648]	@ 700103f4 <ciclo_escritura_descriptores_64KB_2+0xf8>
70010168:	e59f1280 	ldr	r1, [pc, #640]	@ 700103f0 <ciclo_escritura_descriptores_64KB_2+0xf4>
7001016c:	e5801000 	str	r1, [r0]
70010170:	e59f0280 	ldr	r0, [pc, #640]	@ 700103f8 <ciclo_escritura_descriptores_64KB_2+0xfc>
70010174:	e59f1274 	ldr	r1, [pc, #628]	@ 700103f0 <ciclo_escritura_descriptores_64KB_2+0xf4>
70010178:	e5801000 	str	r1, [r0]
7001017c:	e59f0278 	ldr	r0, [pc, #632]	@ 700103fc <ciclo_escritura_descriptores_64KB_2+0x100>
70010180:	e59f1268 	ldr	r1, [pc, #616]	@ 700103f0 <ciclo_escritura_descriptores_64KB_2+0xf4>
70010184:	e5801000 	str	r1, [r0]
70010188:	e59f0270 	ldr	r0, [pc, #624]	@ 70010400 <ciclo_escritura_descriptores_64KB_2+0x104>
7001018c:	e59f1270 	ldr	r1, [pc, #624]	@ 70010404 <ciclo_escritura_descriptores_64KB_2+0x108>
70010190:	e5801000 	str	r1, [r0]
70010194:	e59f026c 	ldr	r0, [pc, #620]	@ 70010408 <ciclo_escritura_descriptores_64KB_2+0x10c>
70010198:	e59f126c 	ldr	r1, [pc, #620]	@ 7001040c <ciclo_escritura_descriptores_64KB_2+0x110>
7001019c:	e5801000 	str	r1, [r0]
700101a0:	e59f0268 	ldr	r0, [pc, #616]	@ 70010410 <ciclo_escritura_descriptores_64KB_2+0x114>
700101a4:	e59f1260 	ldr	r1, [pc, #608]	@ 7001040c <ciclo_escritura_descriptores_64KB_2+0x110>
700101a8:	e5801000 	str	r1, [r0]
700101ac:	e59f0260 	ldr	r0, [pc, #608]	@ 70010414 <ciclo_escritura_descriptores_64KB_2+0x118>
700101b0:	e59f1260 	ldr	r1, [pc, #608]	@ 70010418 <ciclo_escritura_descriptores_64KB_2+0x11c>
700101b4:	e5801000 	str	r1, [r0]
700101b8:	e59f025c 	ldr	r0, [pc, #604]	@ 7001041c <ciclo_escritura_descriptores_64KB_2+0x120>
700101bc:	e59f125c 	ldr	r1, [pc, #604]	@ 70010420 <ciclo_escritura_descriptores_64KB_2+0x124>
700101c0:	e5801000 	str	r1, [r0]
700101c4:	e59f0258 	ldr	r0, [pc, #600]	@ 70010424 <ciclo_escritura_descriptores_64KB_2+0x128>
700101c8:	e59f1258 	ldr	r1, [pc, #600]	@ 70010428 <ciclo_escritura_descriptores_64KB_2+0x12c>
700101cc:	e5801000 	str	r1, [r0]
700101d0:	e59f0254 	ldr	r0, [pc, #596]	@ 7001042c <ciclo_escritura_descriptores_64KB_2+0x130>
700101d4:	e59f1254 	ldr	r1, [pc, #596]	@ 70010430 <ciclo_escritura_descriptores_64KB_2+0x134>
700101d8:	e5801000 	str	r1, [r0]
700101dc:	e59f0250 	ldr	r0, [pc, #592]	@ 70010434 <ciclo_escritura_descriptores_64KB_2+0x138>
700101e0:	e59f1250 	ldr	r1, [pc, #592]	@ 70010438 <ciclo_escritura_descriptores_64KB_2+0x13c>
700101e4:	e5801000 	str	r1, [r0]
700101e8:	e59f024c 	ldr	r0, [pc, #588]	@ 7001043c <ciclo_escritura_descriptores_64KB_2+0x140>
700101ec:	e59f124c 	ldr	r1, [pc, #588]	@ 70010440 <ciclo_escritura_descriptores_64KB_2+0x144>
700101f0:	e5801000 	str	r1, [r0]
700101f4:	e59f0248 	ldr	r0, [pc, #584]	@ 70010444 <ciclo_escritura_descriptores_64KB_2+0x148>
700101f8:	e59f11e8 	ldr	r1, [pc, #488]	@ 700103e8 <ciclo_escritura_descriptores_64KB_2+0xec>
700101fc:	e5801000 	str	r1, [r0]
70010200:	e59f0240 	ldr	r0, [pc, #576]	@ 70010448 <ciclo_escritura_descriptores_64KB_2+0x14c>
70010204:	e59f1240 	ldr	r1, [pc, #576]	@ 7001044c <ciclo_escritura_descriptores_64KB_2+0x150>
70010208:	e5801000 	str	r1, [r0]
7001020c:	e59f023c 	ldr	r0, [pc, #572]	@ 70010450 <ciclo_escritura_descriptores_64KB_2+0x154>
70010210:	e59f11d8 	ldr	r1, [pc, #472]	@ 700103f0 <ciclo_escritura_descriptores_64KB_2+0xf4>
70010214:	e5801000 	str	r1, [r0]
70010218:	e59f0234 	ldr	r0, [pc, #564]	@ 70010454 <ciclo_escritura_descriptores_64KB_2+0x158>
7001021c:	e59f11cc 	ldr	r1, [pc, #460]	@ 700103f0 <ciclo_escritura_descriptores_64KB_2+0xf4>
70010220:	e5801000 	str	r1, [r0]
70010224:	e59f022c 	ldr	r0, [pc, #556]	@ 70010458 <ciclo_escritura_descriptores_64KB_2+0x15c>
70010228:	e59f11c0 	ldr	r1, [pc, #448]	@ 700103f0 <ciclo_escritura_descriptores_64KB_2+0xf4>
7001022c:	e5801000 	str	r1, [r0]
70010230:	e59f0224 	ldr	r0, [pc, #548]	@ 7001045c <ciclo_escritura_descriptores_64KB_2+0x160>
70010234:	e59f11b4 	ldr	r1, [pc, #436]	@ 700103f0 <ciclo_escritura_descriptores_64KB_2+0xf4>
70010238:	e5801000 	str	r1, [r0]
7001023c:	e59f021c 	ldr	r0, [pc, #540]	@ 70010460 <ciclo_escritura_descriptores_64KB_2+0x164>
70010240:	e59f121c 	ldr	r1, [pc, #540]	@ 70010464 <ciclo_escritura_descriptores_64KB_2+0x168>
70010244:	e5801000 	str	r1, [r0]
70010248:	e59f0218 	ldr	r0, [pc, #536]	@ 70010468 <ciclo_escritura_descriptores_64KB_2+0x16c>
7001024c:	e59f1218 	ldr	r1, [pc, #536]	@ 7001046c <ciclo_escritura_descriptores_64KB_2+0x170>
70010250:	e5801000 	str	r1, [r0]
70010254:	e59f0214 	ldr	r0, [pc, #532]	@ 70010470 <ciclo_escritura_descriptores_64KB_2+0x174>
70010258:	e59f1214 	ldr	r1, [pc, #532]	@ 70010474 <ciclo_escritura_descriptores_64KB_2+0x178>
7001025c:	e3a04010 	mov	r4, #16

70010260 <ciclo_escritura_descriptores_64KB_1>:
70010260:	e4801004 	str	r1, [r0], #4
70010264:	e2544001 	subs	r4, r4, #1
70010268:	1afffffc 	bne	70010260 <ciclo_escritura_descriptores_64KB_1>
7001026c:	e59f0204 	ldr	r0, [pc, #516]	@ 70010478 <ciclo_escritura_descriptores_64KB_2+0x17c>
70010270:	e59f1204 	ldr	r1, [pc, #516]	@ 7001047c <ciclo_escritura_descriptores_64KB_2+0x180>
70010274:	e5801000 	str	r1, [r0]
70010278:	e59f0200 	ldr	r0, [pc, #512]	@ 70010480 <ciclo_escritura_descriptores_64KB_2+0x184>
7001027c:	e59f1200 	ldr	r1, [pc, #512]	@ 70010484 <ciclo_escritura_descriptores_64KB_2+0x188>
70010280:	e5801000 	str	r1, [r0]
70010284:	e59f01fc 	ldr	r0, [pc, #508]	@ 70010488 <ciclo_escritura_descriptores_64KB_2+0x18c>
70010288:	e59f11fc 	ldr	r1, [pc, #508]	@ 7001048c <ciclo_escritura_descriptores_64KB_2+0x190>
7001028c:	e5801000 	str	r1, [r0]
70010290:	e59f01f8 	ldr	r0, [pc, #504]	@ 70010490 <ciclo_escritura_descriptores_64KB_2+0x194>
70010294:	e59f114c 	ldr	r1, [pc, #332]	@ 700103e8 <ciclo_escritura_descriptores_64KB_2+0xec>
70010298:	e5801000 	str	r1, [r0]
7001029c:	e59f01f0 	ldr	r0, [pc, #496]	@ 70010494 <ciclo_escritura_descriptores_64KB_2+0x198>
700102a0:	e59f11f0 	ldr	r1, [pc, #496]	@ 70010498 <ciclo_escritura_descriptores_64KB_2+0x19c>
700102a4:	e5801000 	str	r1, [r0]
700102a8:	e59f01ec 	ldr	r0, [pc, #492]	@ 7001049c <ciclo_escritura_descriptores_64KB_2+0x1a0>
700102ac:	e59f113c 	ldr	r1, [pc, #316]	@ 700103f0 <ciclo_escritura_descriptores_64KB_2+0xf4>
700102b0:	e5801000 	str	r1, [r0]
700102b4:	e59f01e4 	ldr	r0, [pc, #484]	@ 700104a0 <ciclo_escritura_descriptores_64KB_2+0x1a4>
700102b8:	e59f1130 	ldr	r1, [pc, #304]	@ 700103f0 <ciclo_escritura_descriptores_64KB_2+0xf4>
700102bc:	e5801000 	str	r1, [r0]
700102c0:	e59f01dc 	ldr	r0, [pc, #476]	@ 700104a4 <ciclo_escritura_descriptores_64KB_2+0x1a8>
700102c4:	e59f1124 	ldr	r1, [pc, #292]	@ 700103f0 <ciclo_escritura_descriptores_64KB_2+0xf4>
700102c8:	e5801000 	str	r1, [r0]
700102cc:	e59f01d4 	ldr	r0, [pc, #468]	@ 700104a8 <ciclo_escritura_descriptores_64KB_2+0x1ac>
700102d0:	e59f1118 	ldr	r1, [pc, #280]	@ 700103f0 <ciclo_escritura_descriptores_64KB_2+0xf4>
700102d4:	e5801000 	str	r1, [r0]
700102d8:	e59f01cc 	ldr	r0, [pc, #460]	@ 700104ac <ciclo_escritura_descriptores_64KB_2+0x1b0>
700102dc:	e59f11cc 	ldr	r1, [pc, #460]	@ 700104b0 <ciclo_escritura_descriptores_64KB_2+0x1b4>
700102e0:	e5801000 	str	r1, [r0]
700102e4:	e59f01c8 	ldr	r0, [pc, #456]	@ 700104b4 <ciclo_escritura_descriptores_64KB_2+0x1b8>
700102e8:	e59f11c8 	ldr	r1, [pc, #456]	@ 700104b8 <ciclo_escritura_descriptores_64KB_2+0x1bc>
700102ec:	e5801000 	str	r1, [r0]
700102f0:	e59f01c4 	ldr	r0, [pc, #452]	@ 700104bc <ciclo_escritura_descriptores_64KB_2+0x1c0>
700102f4:	e59f11c4 	ldr	r1, [pc, #452]	@ 700104c0 <ciclo_escritura_descriptores_64KB_2+0x1c4>
700102f8:	e3a04010 	mov	r4, #16

700102fc <ciclo_escritura_descriptores_64KB_2>:
700102fc:	e4801004 	str	r1, [r0], #4
70010300:	e2544001 	subs	r4, r4, #1
70010304:	1afffffc 	bne	700102fc <ciclo_escritura_descriptores_64KB_2>
70010308:	eb007f3e 	bl	70030008 <init_vms>
7001030c:	ee111f10 	mrc	15, 0, r1, cr1, cr0, {0}
70010310:	e3811001 	orr	r1, r1, #1
70010314:	ee011f10 	mcr	15, 0, r1, cr1, cr0, {0}
70010318:	e3a00207 	mov	r0, #1879048192	@ 0x70000000
7001031c:	ee0c0f10 	mcr	15, 0, r0, cr12, cr0, {0}
70010320:	f57ff06f 	isb	sy
70010324:	ee120f10 	mrc	15, 0, r0, cr2, cr0, {0}
70010328:	e59f1194 	ldr	r1, [pc, #404]	@ 700104c4 <ciclo_escritura_descriptores_64KB_2+0x1c8>
7001032c:	e1a02a21 	lsr	r2, r1, #20
70010330:	e1a02102 	lsl	r2, r2, #2
70010334:	e0800002 	add	r0, r0, r2
70010338:	e5903000 	ldr	r3, [r0]
7001033c:	eb007f47 	bl	70030060 <init_timer0>
70010340:	eb007f3b 	bl	70030034 <gic_init>
70010344:	f1080080 	cpsie	i
70010348:	eb007f2c 	bl	70030000 <_KERNEL_INIT>
7001034c:	70060000 	andvc	r0, r6, r0
70010350:	00004000 	andeq	r4, r0, r0
70010354:	70060280 	andvc	r0, r6, r0, lsl #5
70010358:	70060180 	andvc	r0, r6, r0, lsl #3
7001035c:	70060200 	andvc	r0, r6, r0, lsl #4
70010360:	70060100 	andvc	r0, r6, r0, lsl #2
70010364:	70060080 	andvc	r0, r6, r0, lsl #1
70010368:	70000000 	andvc	r0, r0, r0
7001036c:	700104c8 	andvc	r0, r1, r8, asr #9
70010370:	70000040 	andvc	r0, r0, r0, asr #32
70010374:	81000000 	mrshi	r0, (UNDEF: 0)
70010378:	700106b8 			@ <UNDEFINED> instruction: 0x700106b8
7001037c:	81000014 	tsthi	r0, r4, lsl r0
70010380:	70030000 	andvc	r0, r3, r0
70010384:	70010508 	andvc	r0, r1, r8, lsl #10
70010388:	700301b0 			@ <UNDEFINED> instruction: 0x700301b0
7001038c:	80010000 	andhi	r0, r1, r0
70010390:	700106cc 	andvc	r0, r1, ip, asr #13
70010394:	7004003c 	andvc	r0, r4, ip, lsr r0
70010398:	70040000 	andvc	r0, r4, r0
7001039c:	80020000 	andhi	r0, r2, r0
700103a0:	70010708 	andvc	r0, r1, r8, lsl #14
700103a4:	70040068 	andvc	r0, r4, r8, rrx
700103a8:	7004003c 	andvc	r0, r4, ip, lsr r0
700103ac:	82001c00 	andhi	r1, r0, #0, 24
700103b0:	82004001 	andhi	r4, r0, #1
700103b4:	82002040 	andhi	r2, r0, #64	@ 0x40
700103b8:	82004401 	andhi	r4, r0, #16777216	@ 0x1000000
700103bc:	82002080 	andhi	r2, r0, #128	@ 0x80
700103c0:	82004801 	andhi	r4, r0, #65536	@ 0x10000
700103c4:	82000780 	andhi	r0, r0, #128, 14	@ 0x2000000
700103c8:	82004c01 	andhi	r4, r0, #256	@ 0x100
700103cc:	82000400 	andhi	r0, r0, #0, 8
700103d0:	82005001 	andhi	r5, r0, #1
700103d4:	82004040 	andhi	r4, r0, #64	@ 0x40
700103d8:	70010032 	andvc	r0, r1, r2, lsr r0
700103dc:	820040c0 	andhi	r4, r0, #192	@ 0xc0
700103e0:	70030032 	andvc	r0, r3, r2, lsr r0
700103e4:	82004000 	andhi	r4, r0, #0
700103e8:	70000032 	andvc	r0, r0, r2, lsr r0
700103ec:	82004180 	andhi	r4, r0, #128, 2
700103f0:	80100032 	andshi	r0, r0, r2, lsr r0
700103f4:	82004184 	andhi	r4, r0, #132, 2	@ 0x21
700103f8:	82004188 	andhi	r4, r0, #136, 2	@ 0x22
700103fc:	8200418c 	andhi	r4, r0, #140, 2	@ 0x23
70010400:	82004400 	andhi	r4, r0, #0, 8
70010404:	81000032 	tsthi	r0, r2, lsr r0
70010408:	82004800 	andhi	r4, r0, #0, 16
7001040c:	82000031 	andhi	r0, r0, #49	@ 0x31
70010410:	82004804 	andhi	r4, r0, #4, 16	@ 0x40000
70010414:	82004c00 	andhi	r4, r0, #0, 24
70010418:	1e000032 	mcrne	0, 0, r0, cr0, cr2, {1}
7001041c:	82004c04 	andhi	r4, r0, #4, 24	@ 0x400
70010420:	1e001032 	mcrne	0, 0, r1, cr0, cr2, {1}
70010424:	82005044 	andhi	r5, r0, #68	@ 0x44
70010428:	10011032 	andne	r1, r1, r2, lsr r0
7001042c:	82009c00 	andhi	r9, r0, #0, 24
70010430:	8200c001 	andhi	ip, r0, #1
70010434:	82009c04 	andhi	r9, r0, #4, 24	@ 0x400
70010438:	8200c401 	andhi	ip, r0, #16777216	@ 0x1000000
7001043c:	82009c28 	andhi	r9, r0, #40, 24	@ 0x2800
70010440:	8200c801 	andhi	ip, r0, #65536	@ 0x10000
70010444:	8200c000 	andhi	ip, r0, #0
70010448:	8200c100 	andhi	ip, r0, #0, 2
7001044c:	80010032 	andhi	r0, r1, r2, lsr r0
70010450:	8200c180 	andhi	ip, r0, #128, 2
70010454:	8200c184 	andhi	ip, r0, #132, 2	@ 0x21
70010458:	8200c188 	andhi	ip, r0, #136, 2	@ 0x22
7001045c:	8200c18c 	andhi	ip, r0, #140, 2	@ 0x23
70010460:	8200c280 	andhi	ip, r0, #128, 4
70010464:	80200032 	eorhi	r0, r0, r2, lsr r0
70010468:	8200c400 	andhi	ip, r0, #0, 8
7001046c:	08030032 	stmdaeq	r3, {r1, r4, r5}
70010470:	8200c800 	andhi	ip, r0, #0, 16
70010474:	70a00031 	adcvc	r0, r0, r1, lsr r0
70010478:	82011c00 	andhi	r1, r1, #0, 24
7001047c:	82014001 	andhi	r4, r1, #1
70010480:	82011c04 	andhi	r1, r1, #4, 24	@ 0x400
70010484:	82014401 	andhi	r4, r1, #16777216	@ 0x1000000
70010488:	82011c28 	andhi	r1, r1, #40, 24	@ 0x2800
7001048c:	82014801 	andhi	r4, r1, #65536	@ 0x10000
70010490:	82014000 	andhi	r4, r1, #0
70010494:	82014100 	andhi	r4, r1, #0, 2
70010498:	80020032 	andhi	r0, r2, r2, lsr r0
7001049c:	82014180 	andhi	r4, r1, #128, 2
700104a0:	82014184 	andhi	r4, r1, #132, 2	@ 0x21
700104a4:	82014188 	andhi	r4, r1, #136, 2	@ 0x22
700104a8:	8201418c 	andhi	r4, r1, #140, 2	@ 0x23
700104ac:	82014280 	andhi	r4, r1, #128, 4
700104b0:	80210032 	eorhi	r0, r1, r2, lsr r0
700104b4:	82014400 	andhi	r4, r1, #0, 8
700104b8:	80310032 	eorshi	r0, r1, r2, lsr r0
700104bc:	82014804 	andhi	r4, r1, #4, 16	@ 0x40000
700104c0:	70a10031 	adcvc	r0, r1, r1, lsr r0
700104c4:	70060100 	andvc	r0, r6, r0, lsl #2

Desensamblado de la sección reset_vector:

70000000 <__reset_start__>:
70000000:	e59ff018 	ldr	pc, [pc, #24]	@ 70000020 <jump_reset>
70000004:	e59ff018 	ldr	pc, [pc, #24]	@ 70000024 <jump_undef_handler>
70000008:	e59ff018 	ldr	pc, [pc, #24]	@ 70000028 <jump_svc_handler>
7000000c:	e59ff018 	ldr	pc, [pc, #24]	@ 7000002c <jump_prefetch_abort_handler>
70000010:	e59ff018 	ldr	pc, [pc, #24]	@ 70000030 <jump_data_abort_handler>
70000014:	e59ff018 	ldr	pc, [pc, #24]	@ 70000034 <jump_reserved_handler>
70000018:	e59ff018 	ldr	pc, [pc, #24]	@ 70000038 <jump_irq_handler>
7000001c:	e59ff018 	ldr	pc, [pc, #24]	@ 7000003c <jump_fiq_handler>

70000020 <jump_reset>:
70000020:	70030140 	andvc	r0, r3, r0, asr #2

70000024 <jump_undef_handler>:
70000024:	70030148 	andvc	r0, r3, r8, asr #2

70000028 <jump_svc_handler>:
70000028:	7003014c 	andvc	r0, r3, ip, asr #2

7000002c <jump_prefetch_abort_handler>:
7000002c:	70030150 	andvc	r0, r3, r0, asr r1

70000030 <jump_data_abort_handler>:
70000030:	70030154 	andvc	r0, r3, r4, asr r1

70000034 <jump_reserved_handler>:
70000034:	70030174 	andvc	r0, r3, r4, ror r1

70000038 <jump_irq_handler>:
70000038:	7003008c 	andvc	r0, r3, ip, lsl #1

7000003c <jump_fiq_handler>:
7000003c:	70030144 	andvc	r0, r3, r4, asr #2

Desensamblado de la sección .text:

70030000 <__text_start__>:
70030000:	e320f003 	wfi
70030004:	eafffffd 	b	70030000 <__text_start__>

70030008 <init_vms>:
70030008:	e59f0168 	ldr	r0, [pc, #360]	@ 70030178 <reserved_handler+0x4>
7003000c:	ee030f10 	mcr	15, 0, r0, cr3, cr0, {0}
70030010:	ee110f10 	mrc	15, 0, r0, cr1, cr0, {0}
70030014:	e3800202 	orr	r0, r0, #536870912	@ 0x20000000
70030018:	ee010f10 	mcr	15, 0, r0, cr1, cr0, {0}
7003001c:	ee120f50 	mrc	15, 0, r0, cr2, cr0, {2}
70030020:	e3800000 	orr	r0, r0, #0
70030024:	ee020f50 	mcr	15, 0, r0, cr2, cr0, {2}
70030028:	e3a00482 	mov	r0, #-2113929216	@ 0x82000000
7003002c:	ee020f10 	mcr	15, 0, r0, cr2, cr0, {0}
70030030:	e12fff1e 	bx	lr

70030034 <gic_init>:
70030034:	e3a0041e 	mov	r0, #503316480	@ 0x1e000000
70030038:	e3a010f0 	mov	r1, #240	@ 0xf0
7003003c:	e5801004 	str	r1, [r0, #4]
70030040:	e59f2134 	ldr	r2, [pc, #308]	@ 7003017c <reserved_handler+0x8>
70030044:	e5923104 	ldr	r3, [r2, #260]	@ 0x104
70030048:	e3833010 	orr	r3, r3, #16
7003004c:	e5823104 	str	r3, [r2, #260]	@ 0x104
70030050:	e3a01001 	mov	r1, #1
70030054:	e5801000 	str	r1, [r0]
70030058:	e5821000 	str	r1, [r2]
7003005c:	e12fff1e 	bx	lr

70030060 <init_timer0>:
70030060:	e59f0118 	ldr	r0, [pc, #280]	@ 70030180 <reserved_handler+0xc>
70030064:	e59f1118 	ldr	r1, [pc, #280]	@ 70030184 <reserved_handler+0x10>
70030068:	e5810000 	str	r0, [r1]
7003006c:	e59f1114 	ldr	r1, [pc, #276]	@ 70030188 <reserved_handler+0x14>
70030070:	e3a000ea 	mov	r0, #234	@ 0xea
70030074:	e5810000 	str	r0, [r1]
70030078:	e59f110c 	ldr	r1, [pc, #268]	@ 7003018c <reserved_handler+0x18>
7003007c:	e3a00001 	mov	r0, #1
70030080:	e5810000 	str	r0, [r1]
70030084:	e12fff1e 	bx	lr

70030088 <error_init>:
70030088:	eafffffe 	b	70030088 <error_init>

7003008c <irq_handler>:
7003008c:	e24ee004 	sub	lr, lr, #4
70030090:	e52de004 	push	{lr}		@ (str lr, [sp, #-4]!)
70030094:	e92d1fff 	push	{r0, r1, r2, r3, r4, r5, r6, r7, r8, r9, sl, fp, ip}
70030098:	e59f00f0 	ldr	r0, [pc, #240]	@ 70030190 <reserved_handler+0x1c>
7003009c:	e5901000 	ldr	r1, [r0]
700300a0:	e3510000 	cmp	r1, #0
700300a4:	0a000003 	beq	700300b8 <run_task1>
700300a8:	e3510001 	cmp	r1, #1
700300ac:	0a00000d 	beq	700300e8 <run_task2>

700300b0 <run_kernel>:
700300b0:	ebffffd2 	bl	70030000 <__text_start__>
700300b4:	ea000016 	b	70030114 <update_phase>

700300b8 <run_task1>:
700300b8:	e59f20d4 	ldr	r2, [pc, #212]	@ 70030194 <reserved_handler+0x20>
700300bc:	ee022f10 	mcr	15, 0, r2, cr2, cr0, {0}
700300c0:	f57ff06f 	isb	sy
700300c4:	e59f30cc 	ldr	r3, [pc, #204]	@ 70030198 <reserved_handler+0x24>
700300c8:	e593d000 	ldr	sp, [r3]
700300cc:	eb003fcb 	bl	70040000 <_TASK_INIT>
700300d0:	e3a02482 	mov	r2, #-2113929216	@ 0x82000000
700300d4:	ee022f10 	mcr	15, 0, r2, cr2, cr0, {0}
700300d8:	f57ff06f 	isb	sy
700300dc:	e59f30b8 	ldr	r3, [pc, #184]	@ 7003019c <reserved_handler+0x28>
700300e0:	e593d000 	ldr	sp, [r3]
700300e4:	ea00000a 	b	70030114 <update_phase>

700300e8 <run_task2>:
700300e8:	e59f20b0 	ldr	r2, [pc, #176]	@ 700301a0 <reserved_handler+0x2c>
700300ec:	ee022f10 	mcr	15, 0, r2, cr2, cr0, {0}
700300f0:	f57ff06f 	isb	sy
700300f4:	e59f30a8 	ldr	r3, [pc, #168]	@ 700301a4 <reserved_handler+0x30>
700300f8:	e593d000 	ldr	sp, [r3]
700300fc:	eb003fce 	bl	7004003c <__t1_text_end__>
70030100:	e3a02482 	mov	r2, #-2113929216	@ 0x82000000
70030104:	ee022f10 	mcr	15, 0, r2, cr2, cr0, {0}
70030108:	f57ff06f 	isb	sy
7003010c:	e59f3088 	ldr	r3, [pc, #136]	@ 7003019c <reserved_handler+0x28>
70030110:	e593d000 	ldr	sp, [r3]

70030114 <update_phase>:
70030114:	e59f0074 	ldr	r0, [pc, #116]	@ 70030190 <reserved_handler+0x1c>
70030118:	e5901000 	ldr	r1, [r0]
7003011c:	e2811001 	add	r1, r1, #1
70030120:	e351000a 	cmp	r1, #10
70030124:	03a01000 	moveq	r1, #0
70030128:	e5801000 	str	r1, [r0]
7003012c:	e8bd1fff 	pop	{r0, r1, r2, r3, r4, r5, r6, r7, r8, r9, sl, fp, ip}
70030130:	e49de004 	pop	{lr}		@ (ldr lr, [sp], #4)
70030134:	f57ff06f 	isb	sy
70030138:	f57ff04f 	dsb	sy
7003013c:	e1b0f00e 	movs	pc, lr

70030140 <reset_handler>:
70030140:	eafffffe 	b	70030140 <reset_handler>

70030144 <fiq_handler>:
70030144:	eafffffe 	b	70030144 <fiq_handler>

70030148 <undef_handler>:
70030148:	eafffffe 	b	70030148 <undef_handler>

7003014c <svc_handler>:
7003014c:	eafffffe 	b	7003014c <svc_handler>

70030150 <prefetch_abort_handler>:
70030150:	eafffffe 	b	70030150 <prefetch_abort_handler>

70030154 <data_abort_handler>:
70030154:	e24ee008 	sub	lr, lr, #8
70030158:	ee160f10 	mrc	15, 0, r0, cr6, cr0, {0}
7003015c:	ee151f10 	mrc	15, 0, r1, cr5, cr0, {0}
70030160:	e59f2040 	ldr	r2, [pc, #64]	@ 700301a8 <reserved_handler+0x34>
70030164:	e5820000 	str	r0, [r2]
70030168:	e59f203c 	ldr	r2, [pc, #60]	@ 700301ac <reserved_handler+0x38>
7003016c:	e5821000 	str	r1, [r2]
70030170:	eafffff7 	b	70030154 <data_abort_handler>

70030174 <reserved_handler>:
70030174:	eafffffe 	b	70030174 <reserved_handler>
70030178:	55555555 	ldrbpl	r5, [r5, #-1365]	@ 0xfffffaab
7003017c:	1e001000 	cdpne	0, 0, cr1, cr0, cr0, {0}
70030180:	00000f42 	andeq	r0, r0, r2, asr #30
70030184:	10011000 	andne	r1, r1, r0
70030188:	10011008 	andne	r1, r1, r8
7003018c:	1001100c 	andne	r1, r1, ip
70030190:	81000000 	mrshi	r0, (UNDEF: 0)
70030194:	82008000 	andhi	r8, r0, #0
70030198:	70062280 	andvc	r2, r6, r0, lsl #5
7003019c:	70061280 	andvc	r1, r6, r0, lsl #5
700301a0:	82010000 	andhi	r0, r1, #0
700301a4:	70063280 	andvc	r3, r6, r0, lsl #5
700301a8:	8100000c 	tsthi	r0, ip
700301ac:	81000010 	tsthi	r0, r0, lsl r0

Desensamblado de la sección .data:

81000000 <__data_start__>:
81000000:	00000000 	andeq	r0, r0, r0

81000004 <SP0>:
81000004:	00000000 	andeq	r0, r0, r0

81000008 <task>:
81000008:	00000000 	andeq	r0, r0, r0

8100000c <debug_dfar>:
8100000c:	00000000 	andeq	r0, r0, r0

81000010 <debug_dfsr>:
81000010:	00000000 	andeq	r0, r0, r0

Desensamblado de la sección .task_text:

70040000 <__t1_text_start__>:
70040000:	e59f0028 	ldr	r0, [pc, #40]	@ 70040030 <error+0x4>
70040004:	e59f1028 	ldr	r1, [pc, #40]	@ 70040034 <error+0x8>
70040008:	e59f2028 	ldr	r2, [pc, #40]	@ 70040038 <error+0xc>

7004000c <loop>:
7004000c:	e5802000 	str	r2, [r0]
70040010:	e5903000 	ldr	r3, [r0]
70040014:	e1530002 	cmp	r3, r2
70040018:	1a000003 	bne	7004002c <error>
7004001c:	e2800004 	add	r0, r0, #4
70040020:	e1500001 	cmp	r0, r1
70040024:	bafffff8 	blt	7004000c <loop>
70040028:	e12fff3e 	blx	lr

7004002c <error>:
7004002c:	eafffffe 	b	7004002c <error>
70040030:	70a00000 	adcvc	r0, r0, r0
70040034:	70a0ffff 	strdvc	pc, [r0], pc	@ <UNPREDICTABLE>
70040038:	55aa55aa 	strpl	r5, [sl, #1450]!	@ 0x5aa

7004003c <__t1_text_end__>:
7004003c:	e59f001c 	ldr	r0, [pc, #28]	@ 70040060 <loop+0x1c>
70040040:	e59f101c 	ldr	r1, [pc, #28]	@ 70040064 <loop+0x20>

70040044 <loop>:
70040044:	e5902000 	ldr	r2, [r0]
70040048:	e1e03002 	mvn	r3, r2
7004004c:	e5803000 	str	r3, [r0]
70040050:	e2800004 	add	r0, r0, #4
70040054:	e1500001 	cmp	r0, r1
70040058:	bafffff9 	blt	70040044 <loop>
7004005c:	e12fff3e 	blx	lr
70040060:	70a10000 	adcvc	r0, r1, r0
70040064:	70a1ffff 	strdvc	pc, [r1], pc	@ <UNPREDICTABLE>

Desensamblado de la sección .task_data:

700a0000 <SP1>:
700a0000:	00000000 	andeq	r0, r0, r0

700a0004 <SP2>:
700a0004:	00000000 	andeq	r0, r0, r0

Desensamblado de la sección .ARM.attributes:

00000000 <.ARM.attributes>:
   0:	00001741 	andeq	r1, r0, r1, asr #14
   4:	61656100 	cmnvs	r5, r0, lsl #2
   8:	01006962 	tsteq	r0, r2, ror #18
   c:	0000000d 	andeq	r0, r0, sp
  10:	41070a06 	tstmi	r7, r6, lsl #20
  14:	02090108 	andeq	r0, r9, #8, 2

Desensamblado de la sección .debug_line:

00000000 <.debug_line>:
   0:	00000040 	andeq	r0, r0, r0, asr #32
   4:	001b0002 	andseq	r0, fp, r2
   8:	01020000 	mrseq	r0, (UNDEF: 2)
   c:	000a0efb 	strdeq	r0, [sl], -fp
  10:	01010101 	tsteq	r1, r1, lsl #2
  14:	01000000 	mrseq	r0, (UNDEF: 0)
  18:	73617400 	cmnvc	r1, #0, 8
  1c:	732e316b 			@ <UNDEFINED> instruction: 0x732e316b
  20:	00000000 	andeq	r0, r0, r0
  24:	02050000 	andeq	r0, r5, #0
  28:	70040000 	andvc	r0, r4, r0
  2c:	2c011003 	stccs	0, cr1, [r1], {3}
  30:	2c2c2e2c 	stccs	14, cr2, [ip], #-176	@ 0xffffff50
  34:	2c2c2c2c 	stccs	12, cr2, [ip], #-176	@ 0xffffff50
  38:	71032e2c 	tstvc	r3, ip, lsr #28
  3c:	022c2c2b 	eoreq	r2, ip, #11008	@ 0x2b00
  40:	01010002 	tsteq	r1, r2
  44:	0000003a 	andeq	r0, r0, sl, lsr r0
  48:	001b0002 	andseq	r0, fp, r2
  4c:	01020000 	mrseq	r0, (UNDEF: 2)
  50:	000a0efb 	strdeq	r0, [sl], -fp
  54:	01010101 	tsteq	r1, r1, lsl #2
  58:	01000000 	mrseq	r0, (UNDEF: 0)
  5c:	73617400 	cmnvc	r1, #0, 8
  60:	732e326b 			@ <UNDEFINED> instruction: 0x732e326b
  64:	00000000 	andeq	r0, r0, r0
  68:	02050000 	andeq	r0, r5, #0
  6c:	7004003c 	andvc	r0, r4, ip, lsr r0
  70:	2c2e2c17 	stccs	12, cr2, [lr], #-92	@ 0xffffffa4
  74:	2c2c2c2c 	stccs	12, cr2, [ip], #-176	@ 0xffffff50
  78:	2b76032c 	blcs	1d80d30 <longitud_tablas+0x1d68d30>
  7c:	0002022c 	andeq	r0, r2, ip, lsr #4
  80:	02150101 	andseq	r0, r5, #1073741824	@ 0x40000000
  84:	00020000 	andeq	r0, r2, r0
  88:	0000001a 	andeq	r0, r0, sl, lsl r0
  8c:	0efb0102 	cdpeq	1, 15, cr0, cr11, cr2, {0}
  90:	0101000a 	tsteq	r1, sl
  94:	00000101 	andeq	r0, r0, r1, lsl #2
  98:	74000100 	strvc	r0, [r0], #-256	@ 0xffffff00
  9c:	2e373070 	mrccs	0, 1, r3, cr7, cr0, {3}
  a0:	00000073 	andeq	r0, r0, r3, ror r0
  a4:	05000000 	streq	r0, [r0, #-0]
  a8:	00000002 	andeq	r0, r0, r2
  ac:	00e80370 	rsceq	r0, r8, r0, ror r3
  b0:	2c2c2c01 	stccs	12, cr2, [ip], #-4
  b4:	2c2c2c2c 	stccs	12, cr2, [ip], #-176	@ 0xffffff50
  b8:	01001202 	tsteq	r0, r2, lsl #4
  bc:	02050001 	andeq	r0, r5, #1
  c0:	70010000 	andvc	r0, r1, r0
  c4:	01018803 	tsteq	r1, r3, lsl #16
  c8:	2e2c302c 	cdpcs	0, 2, cr3, cr12, cr12, {1}
  cc:	2e2c2e2c 	cdpcs	14, 2, cr2, cr12, cr12, {1}
  d0:	2e2c2e2c 	cdpcs	14, 2, cr2, cr12, cr12, {1}
  d4:	2c2c2d2c 	stccs	13, cr2, [ip], #-176	@ 0xffffff50
  d8:	2c2c2e2c 	stccs	14, cr2, [ip], #-176	@ 0xffffff50
  dc:	2c2c2e2c 	stccs	14, cr2, [ip], #-176	@ 0xffffff50
  e0:	2c2c2e2c 	stccs	14, cr2, [ip], #-176	@ 0xffffff50
  e4:	2c2c2e2c 	stccs	14, cr2, [ip], #-176	@ 0xffffff50
  e8:	2c2c2e2c 	stccs	14, cr2, [ip], #-176	@ 0xffffff50
  ec:	2c2c2e2c 	stccs	14, cr2, [ip], #-176	@ 0xffffff50
  f0:	2c2e2c2c 	stccs	12, cr2, [lr], #-176	@ 0xffffff50
  f4:	2c2e2c2c 	stccs	12, cr2, [lr], #-176	@ 0xffffff50
  f8:	2e2c2c2c 	cdpcs	12, 2, cr2, cr12, cr12, {1}
  fc:	2d2c2c2c 	stccs	12, cr2, [ip, #-176]!	@ 0xffffff50
 100:	2c2d2c2c 	stccs	12, cr2, [sp], #-176	@ 0xffffff50
 104:	2c2c2f2c 	stccs	15, cr2, [ip], #-176	@ 0xffffff50
 108:	2d2c2c2d 	stccs	12, cr2, [ip, #-180]!	@ 0xffffff4c
 10c:	2c2d2c2c 	stccs	12, cr2, [sp], #-176	@ 0xffffff50
 110:	2c2c2d2c 	stccs	13, cr2, [ip], #-176	@ 0xffffff50
 114:	2d2c2c2f 	stccs	12, cr2, [ip, #-188]!	@ 0xffffff44
 118:	2c2d2c2c 	stccs	12, cr2, [sp], #-176	@ 0xffffff50
 11c:	2c2c2d2c 	stccs	13, cr2, [ip], #-176	@ 0xffffff50
 120:	2d2c2c2d 	stccs	12, cr2, [ip, #-180]!	@ 0xffffff4c
 124:	2c2d2c2c 	stccs	12, cr2, [sp], #-176	@ 0xffffff50
 128:	2c2c2d2c 	stccs	13, cr2, [ip], #-176	@ 0xffffff50
 12c:	2d2c2c2d 	stccs	12, cr2, [ip, #-180]!	@ 0xffffff4c
 130:	2c2d2c2c 	stccs	12, cr2, [sp], #-176	@ 0xffffff50
 134:	2c2c2e2c 	stccs	14, cr2, [ip], #-176	@ 0xffffff50
 138:	302c2c2d 	eorcc	r2, ip, sp, lsr #24
 13c:	2c2d2c2c 	stccs	12, cr2, [sp], #-176	@ 0xffffff50
 140:	2c2c2d2c 	stccs	13, cr2, [ip], #-176	@ 0xffffff50
 144:	2d2c2c2f 	stccs	12, cr2, [ip, #-188]!	@ 0xffffff44
 148:	2c2d2c2c 	stccs	12, cr2, [sp], #-176	@ 0xffffff50
 14c:	2c2c2d2c 	stccs	13, cr2, [ip], #-176	@ 0xffffff50
 150:	2d2c2c2d 	stccs	12, cr2, [ip, #-180]!	@ 0xffffff4c
 154:	2c2d2c2c 	stccs	12, cr2, [sp], #-176	@ 0xffffff50
 158:	2c2c2e2c 	stccs	14, cr2, [ip], #-176	@ 0xffffff50
 15c:	2d2c2c2d 	stccs	12, cr2, [ip, #-180]!	@ 0xffffff4c
 160:	2c302c2c 	ldccs	12, cr2, [r0], #-176	@ 0xffffff50
 164:	2c2c2d2c 	stccs	13, cr2, [ip], #-176	@ 0xffffff50
 168:	2f2c2c2d 	svccs	0x002c2c2d
 16c:	2c2d2c2c 	stccs	12, cr2, [sp], #-176	@ 0xffffff50
 170:	2c2c2d2c 	stccs	13, cr2, [ip], #-176	@ 0xffffff50
 174:	2d2c2c2d 	stccs	12, cr2, [ip, #-180]!	@ 0xffffff4c
 178:	2c2d2c2c 	stccs	12, cr2, [sp], #-176	@ 0xffffff50
 17c:	2c2c2d2c 	stccs	13, cr2, [ip], #-176	@ 0xffffff50
 180:	2d2c2c2d 	stccs	12, cr2, [ip, #-180]!	@ 0xffffff4c
 184:	2c2d2c2c 	stccs	12, cr2, [sp], #-176	@ 0xffffff50
 188:	2c2e2d2c 	stccs	13, cr2, [lr], #-176	@ 0xffffff50
 18c:	2c2c2d2c 	stccs	13, cr2, [ip], #-176	@ 0xffffff50
 190:	2c2c2c2d 	stccs	12, cr2, [ip], #-180	@ 0xffffff4c
 194:	2d302c2c 	ldccs	12, cr2, [r0, #-176]!	@ 0xffffff50
 198:	c3032d2d 	movwgt	r2, #15661	@ 0x3d2d
 19c:	312c2b7d 			@ <UNDEFINED> instruction: 0x312c2b7d
 1a0:	2f2f2f2f 	svccs	0x002f2f2f
 1a4:	032c2c31 			@ <UNDEFINED> instruction: 0x032c2c31
 1a8:	2c2c2b0a 			@ <UNDEFINED> instruction: 0x2c2c2b0a
 1ac:	2c2b0a03 			@ <UNDEFINED> instruction: 0x2c2b0a03
 1b0:	2b0a032c 	blcs	280e68 <longitud_tablas+0x268e68>
 1b4:	032c2c2c 			@ <UNDEFINED> instruction: 0x032c2c2c
 1b8:	2c2c2b0a 			@ <UNDEFINED> instruction: 0x2c2c2b0a
 1bc:	2b13032c 	blcs	4c0e74 <longitud_tablas+0x4a8e74>
 1c0:	2e2c2e2c 	cdpcs	14, 2, cr2, cr12, cr12, {1}
 1c4:	2e2c2e2c 	cdpcs	14, 2, cr2, cr12, cr12, {1}
 1c8:	2e2c302c 	cdpcs	0, 2, cr3, cr12, cr12, {1}
 1cc:	2e2c2e2c 	cdpcs	14, 2, cr2, cr12, cr12, {1}
 1d0:	2f2f2e2c 	svccs	0x002f2e2c
 1d4:	2c2e2c2f 	stccs	12, cr2, [lr], #-188	@ 0xffffff44
 1d8:	2f2c2f2e 	svccs	0x002c2f2e
 1dc:	312c2e2c 			@ <UNDEFINED> instruction: 0x312c2e2c
 1e0:	2e2c2e2c 	cdpcs	14, 2, cr2, cr12, cr12, {1}
 1e4:	2c2f302c 	stccs	0, cr3, [pc], #-176	@ 13c <TIMER0_IRQ_ID+0x118>
 1e8:	2f2f2f2e 	svccs	0x002f2f2e
 1ec:	2c2f2c2f 	stccs	12, cr2, [pc], #-188	@ 138 <TIMER0_IRQ_ID+0x114>
 1f0:	0a032c2e 	beq	cb2b0 <longitud_tablas+0xb32b0>
 1f4:	2c2e2c2b 	stccs	12, cr2, [lr], #-172	@ 0xffffff54
 1f8:	2f302c2e 	svccs	0x00302c2e
 1fc:	2f2f2e2c 	svccs	0x002f2e2c
 200:	2e2c2f2f 	cdpcs	15, 2, cr2, cr12, cr15, {1}
 204:	032c2e2c 			@ <UNDEFINED> instruction: 0x032c2e2c
 208:	02022b13 	andeq	r2, r2, #19456	@ 0x4c00
 20c:	00010100 	andeq	r0, r1, r0, lsl #2
 210:	00000205 	andeq	r0, r0, r5, lsl #4
 214:	c9037003 	stmdbgt	r3, {r0, r1, ip, sp, lr}
 218:	312c0103 			@ <UNDEFINED> instruction: 0x312c0103
 21c:	2c2c2d2c 	stccs	13, cr2, [ip], #-176	@ 0xffffff50
 220:	2d2c2c2d 	stccs	12, cr2, [ip, #-180]!	@ 0xffffff4c
 224:	2c2f2f2c 	stccs	15, cr2, [pc], #-176	@ 17c <TIMER0_IRQ_ID+0x158>
 228:	2c2c2d2c 	stccs	13, cr2, [ip], #-176	@ 0xffffff50
 22c:	2c2c322c 	sfmcs	f3, 4, [ip], #-176	@ 0xffffff50
 230:	2c2c2f2d 	stccs	15, cr2, [ip], #-180	@ 0xffffff4c
 234:	2e2c2c2d 	cdpcs	12, 2, cr2, cr12, cr13, {1}
 238:	2e2d2c2c 	cdpcs	12, 2, cr2, cr13, cr12, {1}
 23c:	2c2b1403 	cfstrscs	mvf1, [fp], #-12
 240:	2d2c2d2c 	stccs	13, cr2, [ip, #-176]!	@ 0xffffff50
 244:	2e2c2c2c 	cdpcs	12, 2, cr2, cr12, cr12, {1}
 248:	2c2c2e2c 	stccs	14, cr2, [ip], #-176	@ 0xffffff50
 24c:	2e2d2c2d 	cdpcs	12, 2, cr2, cr13, cr13, {1}
 250:	2c2d2c2c 	stccs	12, cr2, [sp], #-176	@ 0xffffff50
 254:	2c2c2e2c 	stccs	14, cr2, [ip], #-176	@ 0xffffff50
 258:	2e2d2c2d 	cdpcs	12, 2, cr2, cr13, cr13, {1}
 25c:	2c2d2c2c 	stccs	12, cr2, [sp], #-176	@ 0xffffff50
 260:	2c2c2c2f 	stccs	12, cr2, [ip], #-188	@ 0xffffff44
 264:	2c2e2c2c 	stccs	12, cr2, [lr], #-176	@ 0xffffff50
 268:	2d2c2c2c 	stccs	12, cr2, [ip, #-176]!	@ 0xffffff50
 26c:	2e2e2e2e 	cdpcs	14, 2, cr2, cr14, cr14, {1}
 270:	2d2c2d2e 	stccs	13, cr2, [ip, #-184]!	@ 0xffffff48
 274:	2c2c2d2c 	stccs	13, cr2, [ip], #-176	@ 0xffffff50
 278:	7ed1032e 	cdpvc	3, 13, cr0, cr1, cr14, {1}
 27c:	2b18032b 	blcs	600f30 <longitud_tablas+0x5e8f30>
 280:	2c2b1203 	sfmcs	f1, 4, [fp], #-12
 284:	1f03302e 	svcne	0x0003302e
 288:	2b0d032b 	blcs	340f3c <longitud_tablas+0x328f3c>
 28c:	2b0a032f 	blcs	280f50 <longitud_tablas+0x268f50>
 290:	31032f30 	tstcc	r3, r0, lsr pc
 294:	02022e2b 	andeq	r2, r2, #688	@ 0x2b0
 298:	Address 0x298 is out of bounds.


Desensamblado de la sección .debug_info:

00000000 <.debug_info>:
   0:	00000022 	andeq	r0, r0, r2, lsr #32
   4:	00000002 	andeq	r0, r0, r2
   8:	01040000 	mrseq	r0, (UNDEF: 4)
   c:	00000000 	andeq	r0, r0, r0
  10:	70040000 	andvc	r0, r4, r0
  14:	7004003c 	andvc	r0, r4, ip, lsr r0
  18:	00000000 	andeq	r0, r0, r0
  1c:	00000008 	andeq	r0, r0, r8
  20:	00000031 	andeq	r0, r0, r1, lsr r0
  24:	00228001 	eoreq	r8, r2, r1
  28:	00020000 	andeq	r0, r2, r0
  2c:	00000014 	andeq	r0, r0, r4, lsl r0
  30:	00440104 	subeq	r0, r4, r4, lsl #2
  34:	003c0000 	eorseq	r0, ip, r0
  38:	00687004 	rsbeq	r7, r8, r4
  3c:	003d7004 	eorseq	r7, sp, r4
  40:	00080000 	andeq	r0, r8, r0
  44:	00310000 	eorseq	r0, r1, r0
  48:	80010000 	andhi	r0, r1, r0
  4c:	0000001e 	andeq	r0, r0, lr, lsl r0
  50:	00280002 	eoreq	r0, r8, r2
  54:	01040000 	mrseq	r0, (UNDEF: 4)
  58:	00000082 	andeq	r0, r0, r2, lsl #1
  5c:	00000000 	andeq	r0, r0, r0
  60:	00000045 	andeq	r0, r0, r5, asr #32
  64:	00000008 	andeq	r0, r0, r8
  68:	00000031 	andeq	r0, r0, r1, lsr r0
  6c:	Address 0x6c is out of bounds.


Desensamblado de la sección .debug_abbrev:

00000000 <.debug_abbrev>:
   0:	10001101 	andne	r1, r0, r1, lsl #2
   4:	12011106 	andne	r1, r1, #-2147483647	@ 0x80000001
   8:	1b0e0301 	blne	380c14 <longitud_tablas+0x368c14>
   c:	130e250e 	movwne	r2, #58638	@ 0xe50e
  10:	00000005 	andeq	r0, r0, r5
  14:	10001101 	andne	r1, r0, r1, lsl #2
  18:	12011106 	andne	r1, r1, #-2147483647	@ 0x80000001
  1c:	1b0e0301 	blne	380c28 <longitud_tablas+0x368c28>
  20:	130e250e 	movwne	r2, #58638	@ 0xe50e
  24:	00000005 	andeq	r0, r0, r5
  28:	10001101 	andne	r1, r0, r1, lsl #2
  2c:	03065506 	movweq	r5, #25862	@ 0x6506
  30:	250e1b0e 	strcs	r1, [lr, #-2830]	@ 0xfffff4f2
  34:	0005130e 	andeq	r1, r5, lr, lsl #6
	...

Desensamblado de la sección .debug_aranges:

00000000 <.debug_aranges>:
   0:	0000001c 	andeq	r0, r0, ip, lsl r0
   4:	00000002 	andeq	r0, r0, r2
   8:	00040000 	andeq	r0, r4, r0
   c:	00000000 	andeq	r0, r0, r0
  10:	70040000 	andvc	r0, r4, r0
  14:	0000003c 	andeq	r0, r0, ip, lsr r0
	...
  20:	0000001c 	andeq	r0, r0, ip, lsl r0
  24:	00260002 	eoreq	r0, r6, r2
  28:	00040000 	andeq	r0, r4, r0
  2c:	00000000 	andeq	r0, r0, r0
  30:	7004003c 	andvc	r0, r4, ip, lsr r0
  34:	0000002c 	andeq	r0, r0, ip, lsr #32
	...
  40:	0000002c 	andeq	r0, r0, ip, lsr #32
  44:	004c0002 	subeq	r0, ip, r2
  48:	00040000 	andeq	r0, r4, r0
  4c:	00000000 	andeq	r0, r0, r0
  50:	70000000 	andvc	r0, r0, r0
  54:	00000040 	andeq	r0, r0, r0, asr #32
  58:	70010000 	andvc	r0, r1, r0
  5c:	000004c8 	andeq	r0, r0, r8, asr #9
  60:	70030000 	andvc	r0, r3, r0
  64:	000001b0 			@ <UNDEFINED> instruction: 0x000001b0
	...

Desensamblado de la sección .debug_str:

00000000 <.debug_str>:
   0:	6b736174 	blvs	1cd85d8 <longitud_tablas+0x1cc05d8>
   4:	00732e31 	rsbseq	r2, r3, r1, lsr lr
   8:	6d6f682f 	stclvs	8, cr6, [pc, #-188]!	@ ffffff54 <tabla_segundo_nivel_tarea2_5+0x7dfeab54>
   c:	646d2f65 	strbtvs	r2, [sp], #-3941	@ 0xfffff09b
  10:	6373452f 	cmnvs	r3, #197132288	@ 0xbc00000
  14:	6f746972 	svcvs	0x00746972
  18:	2f6f6972 	svccs	0x006f6972
  1c:	635f3130 	cmpvs	pc, #48, 2
  20:	2f746175 	svccs	0x00746175
  24:	2f334454 	svccs	0x00334454
  28:	305f7074 	subscc	r7, pc, r4, ror r0	@ <UNPREDICTABLE>
  2c:	37305f31 			@ <UNDEFINED> instruction: 0x37305f31
  30:	554e4700 	strbpl	r4, [lr, #-1792]	@ 0xfffff900
  34:	20534120 	subscs	r4, r3, r0, lsr #2
  38:	32342e32 	eorscc	r2, r4, #800	@ 0x320
  3c:	73617400 	cmnvc	r1, #0, 8
  40:	732e326b 			@ <UNDEFINED> instruction: 0x732e326b
  44:	30707400 	rsbscc	r7, r0, r0, lsl #8
  48:	00732e37 	rsbseq	r2, r3, r7, lsr lr

Desensamblado de la sección .debug_ranges:

00000000 <.debug_ranges>:
   0:	ffffffff 			@ <UNDEFINED> instruction: 0xffffffff
   4:	00000000 	andeq	r0, r0, r0
   8:	70000000 	andvc	r0, r0, r0
   c:	70000040 	andvc	r0, r0, r0, asr #32
  10:	70010000 	andvc	r0, r1, r0
  14:	700104c8 	andvc	r0, r1, r8, asr #9
  18:	70030000 	andvc	r0, r3, r0
  1c:	700301b0 			@ <UNDEFINED> instruction: 0x700301b0
	...
