
tp07.elf:     formato del fichero elf32-littlearm


Desensamblado de la sección boot:

70010000 <_start>:
70010000:	e59f04a8 	ldr	r0, [pc, #1192]	@ 700104b0 <ciclo_escritura_descriptores_64KB_2+0x60>
70010004:	e2800004 	add	r0, r0, #4
70010008:	e3a02010 	mov	r2, #16
7001000c:	e5802000 	str	r2, [r0]
70010010:	e3a02000 	mov	r2, #0
70010014:	e3a0300c 	mov	r3, #12

70010018 <init_regs_loop>:
70010018:	e2800004 	add	r0, r0, #4
7001001c:	e5802000 	str	r2, [r0]
70010020:	e2533001 	subs	r3, r3, #1
70010024:	1afffffb 	bne	70010018 <init_regs_loop>
70010028:	e2800004 	add	r0, r0, #4
7001002c:	e59f2480 	ldr	r2, [pc, #1152]	@ 700104b4 <ciclo_escritura_descriptores_64KB_2+0x64>
70010030:	e5802000 	str	r2, [r0]
70010034:	e59f047c 	ldr	r0, [pc, #1148]	@ 700104b8 <ciclo_escritura_descriptores_64KB_2+0x68>
70010038:	e2800004 	add	r0, r0, #4
7001003c:	e3a02010 	mov	r2, #16
70010040:	e5802000 	str	r2, [r0]
70010044:	e3a02000 	mov	r2, #0
70010048:	e3a0300c 	mov	r3, #12

7001004c <init_regs_loop_t2>:
7001004c:	e2800004 	add	r0, r0, #4
70010050:	e5802000 	str	r2, [r0]
70010054:	e2533001 	subs	r3, r3, #1
70010058:	1afffffb 	bne	7001004c <init_regs_loop_t2>
7001005c:	e2800004 	add	r0, r0, #4
70010060:	e59f244c 	ldr	r2, [pc, #1100]	@ 700104b4 <ciclo_escritura_descriptores_64KB_2+0x64>
70010064:	e5802000 	str	r2, [r0]
70010068:	e59f044c 	ldr	r0, [pc, #1100]	@ 700104bc <ciclo_escritura_descriptores_64KB_2+0x6c>
7001006c:	e2800004 	add	r0, r0, #4
70010070:	e3a02010 	mov	r2, #16
70010074:	e5802000 	str	r2, [r0]
70010078:	e3a02000 	mov	r2, #0
7001007c:	e3a0300c 	mov	r3, #12

70010080 <init_regs_loopk>:
70010080:	e2800004 	add	r0, r0, #4
70010084:	e5802000 	str	r2, [r0]
70010088:	e2533001 	subs	r3, r3, #1
7001008c:	1afffffb 	bne	70010080 <init_regs_loopk>
70010090:	e2800004 	add	r0, r0, #4
70010094:	e59f2424 	ldr	r2, [pc, #1060]	@ 700104c0 <ciclo_escritura_descriptores_64KB_2+0x70>
70010098:	e5802000 	str	r2, [r0]
7001009c:	f102001b 	cps	#27
700100a0:	e59fd41c 	ldr	sp, [pc, #1052]	@ 700104c4 <ciclo_escritura_descriptores_64KB_2+0x74>
700100a4:	f1020013 	cps	#19
700100a8:	e59fd418 	ldr	sp, [pc, #1048]	@ 700104c8 <ciclo_escritura_descriptores_64KB_2+0x78>
700100ac:	f1020017 	cps	#23
700100b0:	e59fd414 	ldr	sp, [pc, #1044]	@ 700104cc <ciclo_escritura_descriptores_64KB_2+0x7c>
700100b4:	f1020011 	cps	#17
700100b8:	e59fd410 	ldr	sp, [pc, #1040]	@ 700104d0 <ciclo_escritura_descriptores_64KB_2+0x80>
700100bc:	f1020012 	cps	#18
700100c0:	e59fd40c 	ldr	sp, [pc, #1036]	@ 700104d4 <ciclo_escritura_descriptores_64KB_2+0x84>
700100c4:	f102001f 	cps	#31
700100c8:	e59fd408 	ldr	sp, [pc, #1032]	@ 700104d8 <ciclo_escritura_descriptores_64KB_2+0x88>

700100cc <reset_copy>:
700100cc:	e59f0408 	ldr	r0, [pc, #1032]	@ 700104dc <ciclo_escritura_descriptores_64KB_2+0x8c>
700100d0:	e59f1408 	ldr	r1, [pc, #1032]	@ 700104e0 <ciclo_escritura_descriptores_64KB_2+0x90>
700100d4:	e59f2408 	ldr	r2, [pc, #1032]	@ 700104e4 <ciclo_escritura_descriptores_64KB_2+0x94>
700100d8:	e0422000 	sub	r2, r2, r0

700100dc <byte_copy>:
700100dc:	e4d13001 	ldrb	r3, [r1], #1
700100e0:	e4c03001 	strb	r3, [r0], #1
700100e4:	e2522001 	subs	r2, r2, #1
700100e8:	1afffffb 	bne	700100dc <byte_copy>

700100ec <data_copy>:
700100ec:	e59f03f4 	ldr	r0, [pc, #1012]	@ 700104e8 <ciclo_escritura_descriptores_64KB_2+0x98>
700100f0:	e59f13f4 	ldr	r1, [pc, #1012]	@ 700104ec <ciclo_escritura_descriptores_64KB_2+0x9c>
700100f4:	e59f23f4 	ldr	r2, [pc, #1012]	@ 700104f0 <ciclo_escritura_descriptores_64KB_2+0xa0>
700100f8:	e0422000 	sub	r2, r2, r0

700100fc <byte_copy1>:
700100fc:	e4d13001 	ldrb	r3, [r1], #1
70010100:	e4c03001 	strb	r3, [r0], #1
70010104:	e2522001 	subs	r2, r2, #1
70010108:	1afffffb 	bne	700100fc <byte_copy1>

7001010c <text_copy>:
7001010c:	e59f03e0 	ldr	r0, [pc, #992]	@ 700104f4 <ciclo_escritura_descriptores_64KB_2+0xa4>
70010110:	e59f13e0 	ldr	r1, [pc, #992]	@ 700104f8 <ciclo_escritura_descriptores_64KB_2+0xa8>
70010114:	e59f23e0 	ldr	r2, [pc, #992]	@ 700104fc <ciclo_escritura_descriptores_64KB_2+0xac>
70010118:	e0422000 	sub	r2, r2, r0

7001011c <byte_copy2>:
7001011c:	e4d13001 	ldrb	r3, [r1], #1
70010120:	e4c03001 	strb	r3, [r0], #1
70010124:	e2522001 	subs	r2, r2, #1
70010128:	1afffffb 	bne	7001011c <byte_copy2>

7001012c <task1_copy>:
7001012c:	e59f03cc 	ldr	r0, [pc, #972]	@ 70010500 <ciclo_escritura_descriptores_64KB_2+0xb0>
70010130:	e59f13cc 	ldr	r1, [pc, #972]	@ 70010504 <ciclo_escritura_descriptores_64KB_2+0xb4>
70010134:	e59f23cc 	ldr	r2, [pc, #972]	@ 70010508 <ciclo_escritura_descriptores_64KB_2+0xb8>
70010138:	e59f33cc 	ldr	r3, [pc, #972]	@ 7001050c <ciclo_escritura_descriptores_64KB_2+0xbc>
7001013c:	e0422003 	sub	r2, r2, r3

70010140 <byte_copy3>:
70010140:	e4d14001 	ldrb	r4, [r1], #1
70010144:	e4c04001 	strb	r4, [r0], #1
70010148:	e2522001 	subs	r2, r2, #1
7001014c:	1afffffb 	bne	70010140 <byte_copy3>

70010150 <task2_copy>:
70010150:	e59f03b8 	ldr	r0, [pc, #952]	@ 70010510 <ciclo_escritura_descriptores_64KB_2+0xc0>
70010154:	e59f13b8 	ldr	r1, [pc, #952]	@ 70010514 <ciclo_escritura_descriptores_64KB_2+0xc4>
70010158:	e59f23b8 	ldr	r2, [pc, #952]	@ 70010518 <ciclo_escritura_descriptores_64KB_2+0xc8>
7001015c:	e59f33b8 	ldr	r3, [pc, #952]	@ 7001051c <ciclo_escritura_descriptores_64KB_2+0xcc>
70010160:	e0422003 	sub	r2, r2, r3

70010164 <byte_copy4>:
70010164:	e4d14001 	ldrb	r4, [r1], #1
70010168:	e4c04001 	strb	r4, [r0], #1
7001016c:	e2522001 	subs	r2, r2, #1
70010170:	1afffffb 	bne	70010164 <byte_copy4>

70010174 <data_task1_copy>:
70010174:	e59f03a4 	ldr	r0, [pc, #932]	@ 70010520 <ciclo_escritura_descriptores_64KB_2+0xd0>
70010178:	e59f13a4 	ldr	r1, [pc, #932]	@ 70010524 <ciclo_escritura_descriptores_64KB_2+0xd4>
7001017c:	e59f23a4 	ldr	r2, [pc, #932]	@ 70010528 <ciclo_escritura_descriptores_64KB_2+0xd8>
70010180:	e59f33a4 	ldr	r3, [pc, #932]	@ 7001052c <ciclo_escritura_descriptores_64KB_2+0xdc>
70010184:	e0422003 	sub	r2, r2, r3

70010188 <byte_copy5>:
70010188:	e4d14001 	ldrb	r4, [r1], #1
7001018c:	e4c04001 	strb	r4, [r0], #1
70010190:	e2522001 	subs	r2, r2, #1
70010194:	1afffffb 	bne	70010188 <byte_copy5>

70010198 <data_task2_copy>:
70010198:	e59f0390 	ldr	r0, [pc, #912]	@ 70010530 <ciclo_escritura_descriptores_64KB_2+0xe0>
7001019c:	e59f1390 	ldr	r1, [pc, #912]	@ 70010534 <ciclo_escritura_descriptores_64KB_2+0xe4>
700101a0:	e59f2390 	ldr	r2, [pc, #912]	@ 70010538 <ciclo_escritura_descriptores_64KB_2+0xe8>
700101a4:	e59f3390 	ldr	r3, [pc, #912]	@ 7001053c <ciclo_escritura_descriptores_64KB_2+0xec>
700101a8:	e0422003 	sub	r2, r2, r3

700101ac <byte_copy6>:
700101ac:	e4d14001 	ldrb	r4, [r1], #1
700101b0:	e4c04001 	strb	r4, [r0], #1
700101b4:	e2522001 	subs	r2, r2, #1
700101b8:	1afffffb 	bne	700101ac <byte_copy6>
700101bc:	e3a01482 	mov	r1, #-2113929216	@ 0x82000000
700101c0:	e3a02906 	mov	r2, #98304	@ 0x18000
700101c4:	e3a00000 	mov	r0, #0

700101c8 <ciclo_borrado>:
700101c8:	e4c10001 	strb	r0, [r1], #1
700101cc:	e2522001 	subs	r2, r2, #1
700101d0:	1afffffc 	bne	700101c8 <ciclo_borrado>
700101d4:	e59f0364 	ldr	r0, [pc, #868]	@ 70010540 <ciclo_escritura_descriptores_64KB_2+0xf0>
700101d8:	e59f1364 	ldr	r1, [pc, #868]	@ 70010544 <ciclo_escritura_descriptores_64KB_2+0xf4>
700101dc:	e5801000 	str	r1, [r0]
700101e0:	e59f0360 	ldr	r0, [pc, #864]	@ 70010548 <ciclo_escritura_descriptores_64KB_2+0xf8>
700101e4:	e59f1360 	ldr	r1, [pc, #864]	@ 7001054c <ciclo_escritura_descriptores_64KB_2+0xfc>
700101e8:	e5801000 	str	r1, [r0]
700101ec:	e59f035c 	ldr	r0, [pc, #860]	@ 70010550 <ciclo_escritura_descriptores_64KB_2+0x100>
700101f0:	e59f135c 	ldr	r1, [pc, #860]	@ 70010554 <ciclo_escritura_descriptores_64KB_2+0x104>
700101f4:	e5801000 	str	r1, [r0]
700101f8:	e59f0358 	ldr	r0, [pc, #856]	@ 70010558 <ciclo_escritura_descriptores_64KB_2+0x108>
700101fc:	e59f1358 	ldr	r1, [pc, #856]	@ 7001055c <ciclo_escritura_descriptores_64KB_2+0x10c>
70010200:	e5801000 	str	r1, [r0]
70010204:	e59f0354 	ldr	r0, [pc, #852]	@ 70010560 <ciclo_escritura_descriptores_64KB_2+0x110>
70010208:	e59f1354 	ldr	r1, [pc, #852]	@ 70010564 <ciclo_escritura_descriptores_64KB_2+0x114>
7001020c:	e5801000 	str	r1, [r0]
70010210:	e59f0350 	ldr	r0, [pc, #848]	@ 70010568 <ciclo_escritura_descriptores_64KB_2+0x118>
70010214:	e59f1350 	ldr	r1, [pc, #848]	@ 7001056c <ciclo_escritura_descriptores_64KB_2+0x11c>
70010218:	e5801000 	str	r1, [r0]
7001021c:	e59f034c 	ldr	r0, [pc, #844]	@ 70010570 <ciclo_escritura_descriptores_64KB_2+0x120>
70010220:	e59f134c 	ldr	r1, [pc, #844]	@ 70010574 <ciclo_escritura_descriptores_64KB_2+0x124>
70010224:	e5801000 	str	r1, [r0]
70010228:	e59f0348 	ldr	r0, [pc, #840]	@ 70010578 <ciclo_escritura_descriptores_64KB_2+0x128>
7001022c:	e59f1348 	ldr	r1, [pc, #840]	@ 7001057c <ciclo_escritura_descriptores_64KB_2+0x12c>
70010230:	e5801000 	str	r1, [r0]
70010234:	e59f0344 	ldr	r0, [pc, #836]	@ 70010580 <ciclo_escritura_descriptores_64KB_2+0x130>
70010238:	e59f1344 	ldr	r1, [pc, #836]	@ 70010584 <ciclo_escritura_descriptores_64KB_2+0x134>
7001023c:	e5801000 	str	r1, [r0]
70010240:	e59f0340 	ldr	r0, [pc, #832]	@ 70010588 <ciclo_escritura_descriptores_64KB_2+0x138>
70010244:	e59f1340 	ldr	r1, [pc, #832]	@ 7001058c <ciclo_escritura_descriptores_64KB_2+0x13c>
70010248:	e5801000 	str	r1, [r0]
7001024c:	e59f033c 	ldr	r0, [pc, #828]	@ 70010590 <ciclo_escritura_descriptores_64KB_2+0x140>
70010250:	e59f133c 	ldr	r1, [pc, #828]	@ 70010594 <ciclo_escritura_descriptores_64KB_2+0x144>
70010254:	e5801000 	str	r1, [r0]
70010258:	e59f0338 	ldr	r0, [pc, #824]	@ 70010598 <ciclo_escritura_descriptores_64KB_2+0x148>
7001025c:	e59f1338 	ldr	r1, [pc, #824]	@ 7001059c <ciclo_escritura_descriptores_64KB_2+0x14c>
70010260:	e5801000 	str	r1, [r0]
70010264:	e59f0334 	ldr	r0, [pc, #820]	@ 700105a0 <ciclo_escritura_descriptores_64KB_2+0x150>
70010268:	e59f1334 	ldr	r1, [pc, #820]	@ 700105a4 <ciclo_escritura_descriptores_64KB_2+0x154>
7001026c:	e5801000 	str	r1, [r0]
70010270:	e59f0330 	ldr	r0, [pc, #816]	@ 700105a8 <ciclo_escritura_descriptores_64KB_2+0x158>
70010274:	e59f1330 	ldr	r1, [pc, #816]	@ 700105ac <ciclo_escritura_descriptores_64KB_2+0x15c>
70010278:	e5801000 	str	r1, [r0]
7001027c:	e59f032c 	ldr	r0, [pc, #812]	@ 700105b0 <ciclo_escritura_descriptores_64KB_2+0x160>
70010280:	e59f132c 	ldr	r1, [pc, #812]	@ 700105b4 <ciclo_escritura_descriptores_64KB_2+0x164>
70010284:	e3a04020 	mov	r4, #32

70010288 <ciclo_escritura_descriptores_64KB>:
70010288:	e4801004 	str	r1, [r0], #4
7001028c:	e2544001 	subs	r4, r4, #1
70010290:	1afffffc 	bne	70010288 <ciclo_escritura_descriptores_64KB>
70010294:	e59f031c 	ldr	r0, [pc, #796]	@ 700105b8 <ciclo_escritura_descriptores_64KB_2+0x168>
70010298:	e59f131c 	ldr	r1, [pc, #796]	@ 700105bc <ciclo_escritura_descriptores_64KB_2+0x16c>
7001029c:	e5801000 	str	r1, [r0]
700102a0:	e59f0318 	ldr	r0, [pc, #792]	@ 700105c0 <ciclo_escritura_descriptores_64KB_2+0x170>
700102a4:	e59f1318 	ldr	r1, [pc, #792]	@ 700105c4 <ciclo_escritura_descriptores_64KB_2+0x174>
700102a8:	e5801000 	str	r1, [r0]
700102ac:	e59f0314 	ldr	r0, [pc, #788]	@ 700105c8 <ciclo_escritura_descriptores_64KB_2+0x178>
700102b0:	e59f1314 	ldr	r1, [pc, #788]	@ 700105cc <ciclo_escritura_descriptores_64KB_2+0x17c>
700102b4:	e5801000 	str	r1, [r0]
700102b8:	e59f0310 	ldr	r0, [pc, #784]	@ 700105d0 <ciclo_escritura_descriptores_64KB_2+0x180>
700102bc:	e59f1310 	ldr	r1, [pc, #784]	@ 700105d4 <ciclo_escritura_descriptores_64KB_2+0x184>
700102c0:	e5801000 	str	r1, [r0]
700102c4:	e59f030c 	ldr	r0, [pc, #780]	@ 700105d8 <ciclo_escritura_descriptores_64KB_2+0x188>
700102c8:	e59f130c 	ldr	r1, [pc, #780]	@ 700105dc <ciclo_escritura_descriptores_64KB_2+0x18c>
700102cc:	e5801000 	str	r1, [r0]
700102d0:	e59f0308 	ldr	r0, [pc, #776]	@ 700105e0 <ciclo_escritura_descriptores_64KB_2+0x190>
700102d4:	e59f1308 	ldr	r1, [pc, #776]	@ 700105e4 <ciclo_escritura_descriptores_64KB_2+0x194>
700102d8:	e5801000 	str	r1, [r0]
700102dc:	e59f0304 	ldr	r0, [pc, #772]	@ 700105e8 <ciclo_escritura_descriptores_64KB_2+0x198>
700102e0:	e59f1304 	ldr	r1, [pc, #772]	@ 700105ec <ciclo_escritura_descriptores_64KB_2+0x19c>
700102e4:	e5801000 	str	r1, [r0]
700102e8:	e59f0300 	ldr	r0, [pc, #768]	@ 700105f0 <ciclo_escritura_descriptores_64KB_2+0x1a0>
700102ec:	e59f1300 	ldr	r1, [pc, #768]	@ 700105f4 <ciclo_escritura_descriptores_64KB_2+0x1a4>
700102f0:	e5801000 	str	r1, [r0]
700102f4:	e59f02fc 	ldr	r0, [pc, #764]	@ 700105f8 <ciclo_escritura_descriptores_64KB_2+0x1a8>
700102f8:	e59f1284 	ldr	r1, [pc, #644]	@ 70010584 <ciclo_escritura_descriptores_64KB_2+0x134>
700102fc:	e5801000 	str	r1, [r0]
70010300:	e59f02f4 	ldr	r0, [pc, #756]	@ 700105fc <ciclo_escritura_descriptores_64KB_2+0x1ac>
70010304:	e59f12f4 	ldr	r1, [pc, #756]	@ 70010600 <ciclo_escritura_descriptores_64KB_2+0x1b0>
70010308:	e5801000 	str	r1, [r0]
7001030c:	e59f02f0 	ldr	r0, [pc, #752]	@ 70010604 <ciclo_escritura_descriptores_64KB_2+0x1b4>
70010310:	e59f12f0 	ldr	r1, [pc, #752]	@ 70010608 <ciclo_escritura_descriptores_64KB_2+0x1b8>
70010314:	e5801000 	str	r1, [r0]
70010318:	e59f02ec 	ldr	r0, [pc, #748]	@ 7001060c <ciclo_escritura_descriptores_64KB_2+0x1bc>
7001031c:	e59f1268 	ldr	r1, [pc, #616]	@ 7001058c <ciclo_escritura_descriptores_64KB_2+0x13c>
70010320:	e5801000 	str	r1, [r0]
70010324:	e59f02e4 	ldr	r0, [pc, #740]	@ 70010610 <ciclo_escritura_descriptores_64KB_2+0x1c0>
70010328:	e59f1264 	ldr	r1, [pc, #612]	@ 70010594 <ciclo_escritura_descriptores_64KB_2+0x144>
7001032c:	e5801000 	str	r1, [r0]
70010330:	e59f02dc 	ldr	r0, [pc, #732]	@ 70010614 <ciclo_escritura_descriptores_64KB_2+0x1c4>
70010334:	e59f1260 	ldr	r1, [pc, #608]	@ 7001059c <ciclo_escritura_descriptores_64KB_2+0x14c>
70010338:	e5801000 	str	r1, [r0]
7001033c:	e59f02d4 	ldr	r0, [pc, #724]	@ 70010618 <ciclo_escritura_descriptores_64KB_2+0x1c8>
70010340:	e59f125c 	ldr	r1, [pc, #604]	@ 700105a4 <ciclo_escritura_descriptores_64KB_2+0x154>
70010344:	e5801000 	str	r1, [r0]
70010348:	e59f02cc 	ldr	r0, [pc, #716]	@ 7001061c <ciclo_escritura_descriptores_64KB_2+0x1cc>
7001034c:	e59f12cc 	ldr	r1, [pc, #716]	@ 70010620 <ciclo_escritura_descriptores_64KB_2+0x1d0>
70010350:	e5801000 	str	r1, [r0]
70010354:	e59f02c8 	ldr	r0, [pc, #712]	@ 70010624 <ciclo_escritura_descriptores_64KB_2+0x1d4>
70010358:	e59f12c8 	ldr	r1, [pc, #712]	@ 70010628 <ciclo_escritura_descriptores_64KB_2+0x1d8>
7001035c:	e5801000 	str	r1, [r0]
70010360:	e59f02c4 	ldr	r0, [pc, #708]	@ 7001062c <ciclo_escritura_descriptores_64KB_2+0x1dc>
70010364:	e59f12c4 	ldr	r1, [pc, #708]	@ 70010630 <ciclo_escritura_descriptores_64KB_2+0x1e0>
70010368:	e3a04010 	mov	r4, #16

7001036c <ciclo_escritura_descriptores_64KB_1>:
7001036c:	e4801004 	str	r1, [r0], #4
70010370:	e2544001 	subs	r4, r4, #1
70010374:	1afffffc 	bne	7001036c <ciclo_escritura_descriptores_64KB_1>
70010378:	e59f02b4 	ldr	r0, [pc, #692]	@ 70010634 <ciclo_escritura_descriptores_64KB_2+0x1e4>
7001037c:	e59f1238 	ldr	r1, [pc, #568]	@ 700105bc <ciclo_escritura_descriptores_64KB_2+0x16c>
70010380:	e5801000 	str	r1, [r0]
70010384:	e59f02ac 	ldr	r0, [pc, #684]	@ 70010638 <ciclo_escritura_descriptores_64KB_2+0x1e8>
70010388:	e59f1234 	ldr	r1, [pc, #564]	@ 700105c4 <ciclo_escritura_descriptores_64KB_2+0x174>
7001038c:	e5801000 	str	r1, [r0]
70010390:	e59f02a4 	ldr	r0, [pc, #676]	@ 7001063c <ciclo_escritura_descriptores_64KB_2+0x1ec>
70010394:	e59f1230 	ldr	r1, [pc, #560]	@ 700105cc <ciclo_escritura_descriptores_64KB_2+0x17c>
70010398:	e5801000 	str	r1, [r0]
7001039c:	e59f029c 	ldr	r0, [pc, #668]	@ 70010640 <ciclo_escritura_descriptores_64KB_2+0x1f0>
700103a0:	e59f129c 	ldr	r1, [pc, #668]	@ 70010644 <ciclo_escritura_descriptores_64KB_2+0x1f4>
700103a4:	e5801000 	str	r1, [r0]
700103a8:	e59f0298 	ldr	r0, [pc, #664]	@ 70010648 <ciclo_escritura_descriptores_64KB_2+0x1f8>
700103ac:	e59f1298 	ldr	r1, [pc, #664]	@ 7001064c <ciclo_escritura_descriptores_64KB_2+0x1fc>
700103b0:	e5801000 	str	r1, [r0]
700103b4:	e59f0294 	ldr	r0, [pc, #660]	@ 70010650 <ciclo_escritura_descriptores_64KB_2+0x200>
700103b8:	e59f1294 	ldr	r1, [pc, #660]	@ 70010654 <ciclo_escritura_descriptores_64KB_2+0x204>
700103bc:	e5801000 	str	r1, [r0]
700103c0:	e59f0290 	ldr	r0, [pc, #656]	@ 70010658 <ciclo_escritura_descriptores_64KB_2+0x208>
700103c4:	e59f1290 	ldr	r1, [pc, #656]	@ 7001065c <ciclo_escritura_descriptores_64KB_2+0x20c>
700103c8:	e5801000 	str	r1, [r0]
700103cc:	e59f028c 	ldr	r0, [pc, #652]	@ 70010660 <ciclo_escritura_descriptores_64KB_2+0x210>
700103d0:	e59f128c 	ldr	r1, [pc, #652]	@ 70010664 <ciclo_escritura_descriptores_64KB_2+0x214>
700103d4:	e5801000 	str	r1, [r0]
700103d8:	e59f0288 	ldr	r0, [pc, #648]	@ 70010668 <ciclo_escritura_descriptores_64KB_2+0x218>
700103dc:	e59f11a0 	ldr	r1, [pc, #416]	@ 70010584 <ciclo_escritura_descriptores_64KB_2+0x134>
700103e0:	e5801000 	str	r1, [r0]
700103e4:	e59f0280 	ldr	r0, [pc, #640]	@ 7001066c <ciclo_escritura_descriptores_64KB_2+0x21c>
700103e8:	e59f1210 	ldr	r1, [pc, #528]	@ 70010600 <ciclo_escritura_descriptores_64KB_2+0x1b0>
700103ec:	e5801000 	str	r1, [r0]
700103f0:	e59f0278 	ldr	r0, [pc, #632]	@ 70010670 <ciclo_escritura_descriptores_64KB_2+0x220>
700103f4:	e59f1278 	ldr	r1, [pc, #632]	@ 70010674 <ciclo_escritura_descriptores_64KB_2+0x224>
700103f8:	e5801000 	str	r1, [r0]
700103fc:	e59f0274 	ldr	r0, [pc, #628]	@ 70010678 <ciclo_escritura_descriptores_64KB_2+0x228>
70010400:	e59f1184 	ldr	r1, [pc, #388]	@ 7001058c <ciclo_escritura_descriptores_64KB_2+0x13c>
70010404:	e5801000 	str	r1, [r0]
70010408:	e59f026c 	ldr	r0, [pc, #620]	@ 7001067c <ciclo_escritura_descriptores_64KB_2+0x22c>
7001040c:	e59f1180 	ldr	r1, [pc, #384]	@ 70010594 <ciclo_escritura_descriptores_64KB_2+0x144>
70010410:	e5801000 	str	r1, [r0]
70010414:	e59f0264 	ldr	r0, [pc, #612]	@ 70010680 <ciclo_escritura_descriptores_64KB_2+0x230>
70010418:	e59f117c 	ldr	r1, [pc, #380]	@ 7001059c <ciclo_escritura_descriptores_64KB_2+0x14c>
7001041c:	e5801000 	str	r1, [r0]
70010420:	e59f025c 	ldr	r0, [pc, #604]	@ 70010684 <ciclo_escritura_descriptores_64KB_2+0x234>
70010424:	e59f1178 	ldr	r1, [pc, #376]	@ 700105a4 <ciclo_escritura_descriptores_64KB_2+0x154>
70010428:	e5801000 	str	r1, [r0]
7001042c:	e59f0254 	ldr	r0, [pc, #596]	@ 70010688 <ciclo_escritura_descriptores_64KB_2+0x238>
70010430:	e59f1254 	ldr	r1, [pc, #596]	@ 7001068c <ciclo_escritura_descriptores_64KB_2+0x23c>
70010434:	e5801000 	str	r1, [r0]
70010438:	e59f0250 	ldr	r0, [pc, #592]	@ 70010690 <ciclo_escritura_descriptores_64KB_2+0x240>
7001043c:	e59f1250 	ldr	r1, [pc, #592]	@ 70010694 <ciclo_escritura_descriptores_64KB_2+0x244>
70010440:	e5801000 	str	r1, [r0]
70010444:	e59f024c 	ldr	r0, [pc, #588]	@ 70010698 <ciclo_escritura_descriptores_64KB_2+0x248>
70010448:	e59f124c 	ldr	r1, [pc, #588]	@ 7001069c <ciclo_escritura_descriptores_64KB_2+0x24c>
7001044c:	e3a04010 	mov	r4, #16

70010450 <ciclo_escritura_descriptores_64KB_2>:
70010450:	e4801004 	str	r1, [r0], #4
70010454:	e2544001 	subs	r4, r4, #1
70010458:	1afffffc 	bne	70010450 <ciclo_escritura_descriptores_64KB_2>
7001045c:	e59f023c 	ldr	r0, [pc, #572]	@ 700106a0 <ciclo_escritura_descriptores_64KB_2+0x250>
70010460:	e59f1154 	ldr	r1, [pc, #340]	@ 700105bc <ciclo_escritura_descriptores_64KB_2+0x16c>
70010464:	e5801000 	str	r1, [r0]
70010468:	e59f0234 	ldr	r0, [pc, #564]	@ 700106a4 <ciclo_escritura_descriptores_64KB_2+0x254>
7001046c:	e59f1150 	ldr	r1, [pc, #336]	@ 700105c4 <ciclo_escritura_descriptores_64KB_2+0x174>
70010470:	e5801000 	str	r1, [r0]
70010474:	e59f022c 	ldr	r0, [pc, #556]	@ 700106a8 <ciclo_escritura_descriptores_64KB_2+0x258>
70010478:	e59f114c 	ldr	r1, [pc, #332]	@ 700105cc <ciclo_escritura_descriptores_64KB_2+0x17c>
7001047c:	e5801000 	str	r1, [r0]
70010480:	eb007ee0 	bl	70030008 <init_vms>
70010484:	ee111f10 	mrc	15, 0, r1, cr1, cr0, {0}
70010488:	e3811001 	orr	r1, r1, #1
7001048c:	ee011f10 	mcr	15, 0, r1, cr1, cr0, {0}
70010490:	f57ff06f 	isb	sy
70010494:	e3a00207 	mov	r0, #1879048192	@ 0x70000000
70010498:	ee0c0f10 	mcr	15, 0, r0, cr12, cr0, {0}
7001049c:	f57ff06f 	isb	sy
700104a0:	ebffbee6 	bl	70000040 <init_timer0>
700104a4:	eb007ee6 	bl	70030044 <gic_init>
700104a8:	f1080080 	cpsie	i
700104ac:	eb007ed3 	bl	70030000 <_KERNEL_INIT>
700104b0:	80102300 	andshi	r2, r0, r0, lsl #6
700104b4:	70040000 	andvc	r0, r4, r0
700104b8:	80103300 	andshi	r3, r0, r0, lsl #6
700104bc:	80101300 	andshi	r1, r0, r0, lsl #6
700104c0:	70030000 	andvc	r0, r3, r0
700104c4:	70060280 	andvc	r0, r6, r0, lsl #5
700104c8:	70060180 	andvc	r0, r6, r0, lsl #3
700104cc:	70060200 	andvc	r0, r6, r0, lsl #4
700104d0:	70060100 	andvc	r0, r6, r0, lsl #2
700104d4:	70060080 	andvc	r0, r6, r0, lsl #1
700104d8:	70060300 	andvc	r0, r6, r0, lsl #6
700104dc:	70000000 	andvc	r0, r0, r0
700104e0:	700106ac 	andvc	r0, r1, ip, lsr #13
700104e4:	700001f0 	strdvc	r0, [r0], -r0	@ <UNPREDICTABLE>
700104e8:	81000000 	mrshi	r0, (UNDEF: 0)
700104ec:	70010914 	andvc	r0, r1, r4, lsl r9
700104f0:	81000014 	tsthi	r0, r4, lsl r0
700104f4:	70030000 	andvc	r0, r3, r0
700104f8:	7001089c 	mulvc	r1, ip, r8
700104fc:	70030078 	andvc	r0, r3, r8, ror r0
70010500:	80010000 	andhi	r0, r1, r0
70010504:	80010000 	andhi	r0, r1, r0
70010508:	7004003c 	andvc	r0, r4, ip, lsr r0
7001050c:	70040000 	andvc	r0, r4, r0
70010510:	80020000 	andhi	r0, r2, r0
70010514:	80020000 	andhi	r0, r2, r0
70010518:	70040068 	andvc	r0, r4, r8, rrx
7001051c:	7004003c 	andvc	r0, r4, ip, lsr r0
70010520:	80200000 	eorhi	r0, r0, r0
70010524:	70010928 	andvc	r0, r1, r8, lsr #18
70010528:	700a0004 	andvc	r0, sl, r4
7001052c:	700a0000 	andvc	r0, sl, r0
70010530:	80210000 	eorhi	r0, r1, r0
70010534:	7001092c 	andvc	r0, r1, ip, lsr #18
70010538:	700a000c 	andvc	r0, sl, ip
7001053c:	700a0004 	andvc	r0, sl, r4
70010540:	82001c00 	andhi	r1, r0, #0, 24
70010544:	82004001 	andhi	r4, r0, #1
70010548:	82002040 	andhi	r2, r0, #64	@ 0x40
7001054c:	82004401 	andhi	r4, r0, #16777216	@ 0x1000000
70010550:	82002080 	andhi	r2, r0, #128	@ 0x80
70010554:	82004801 	andhi	r4, r0, #65536	@ 0x10000
70010558:	82000780 	andhi	r0, r0, #128, 14	@ 0x2000000
7001055c:	82004c01 	andhi	r4, r0, #256	@ 0x100
70010560:	82000400 	andhi	r0, r0, #0, 8
70010564:	82005001 	andhi	r5, r0, #1
70010568:	82004040 	andhi	r4, r0, #64	@ 0x40
7001056c:	70010012 	andvc	r0, r1, r2, lsl r0
70010570:	82004080 	andhi	r4, r0, #128	@ 0x80
70010574:	70020032 	andvc	r0, r2, r2, lsr r0
70010578:	820040c0 	andhi	r4, r0, #192	@ 0xc0
7001057c:	70030a12 	andvc	r0, r3, r2, lsl sl
70010580:	82004000 	andhi	r4, r0, #0
70010584:	70000212 	andvc	r0, r0, r2, lsl r2
70010588:	82004180 	andhi	r4, r0, #128, 2
7001058c:	80100032 	andshi	r0, r0, r2, lsr r0
70010590:	82004184 	andhi	r4, r0, #132, 2	@ 0x21
70010594:	80101032 	andshi	r1, r0, r2, lsr r0
70010598:	82004188 	andhi	r4, r0, #136, 2	@ 0x22
7001059c:	80102032 	andshi	r2, r0, r2, lsr r0
700105a0:	8200418c 	andhi	r4, r0, #140, 2	@ 0x23
700105a4:	80103032 	andshi	r3, r0, r2, lsr r0
700105a8:	82004400 	andhi	r4, r0, #0, 8
700105ac:	81000032 	tsthi	r0, r2, lsr r0
700105b0:	82004800 	andhi	r4, r0, #0, 16
700105b4:	82000011 	andhi	r0, r0, #17
700105b8:	82004c00 	andhi	r4, r0, #0, 24
700105bc:	1e000012 	mcrne	0, 0, r0, cr0, cr2, {0}
700105c0:	82004c04 	andhi	r4, r0, #4, 24	@ 0x400
700105c4:	1e001012 	mcrne	0, 0, r1, cr0, cr2, {0}
700105c8:	82005044 	andhi	r5, r0, #68	@ 0x44
700105cc:	10011012 	andne	r1, r1, r2, lsl r0
700105d0:	82009c00 	andhi	r9, r0, #0, 24
700105d4:	8200c001 	andhi	ip, r0, #1
700105d8:	82009c04 	andhi	r9, r0, #4, 24	@ 0x400
700105dc:	8200c401 	andhi	ip, r0, #16777216	@ 0x1000000
700105e0:	82009c28 	andhi	r9, r0, #40, 24	@ 0x2800
700105e4:	8200c801 	andhi	ip, r0, #65536	@ 0x10000
700105e8:	82008780 	andhi	r8, r0, #128, 14	@ 0x2000000
700105ec:	8200cc01 	andhi	ip, r0, #256	@ 0x100
700105f0:	82008400 	andhi	r8, r0, #0, 8
700105f4:	8200d001 	andhi	sp, r0, #1
700105f8:	8200c000 	andhi	ip, r0, #0
700105fc:	8200c080 	andhi	ip, r0, #128	@ 0x80
70010600:	70020012 	andvc	r0, r2, r2, lsl r0
70010604:	8200c100 	andhi	ip, r0, #0, 2
70010608:	80010a22 	andhi	r0, r1, r2, lsr #20
7001060c:	8200c180 	andhi	ip, r0, #128, 2
70010610:	8200c184 	andhi	ip, r0, #132, 2	@ 0x21
70010614:	8200c188 	andhi	ip, r0, #136, 2	@ 0x22
70010618:	8200c18c 	andhi	ip, r0, #140, 2	@ 0x23
7001061c:	8200c280 	andhi	ip, r0, #128, 4
70010620:	80200832 	eorhi	r0, r0, r2, lsr r8
70010624:	8200c400 	andhi	ip, r0, #0, 8
70010628:	80300832 	eorshi	r0, r0, r2, lsr r8
7001062c:	8200c800 	andhi	ip, r0, #0, 16
70010630:	70a00831 	adcvc	r0, r0, r1, lsr r8
70010634:	8200cc00 	andhi	ip, r0, #0, 24
70010638:	8200cc04 	andhi	ip, r0, #4, 24	@ 0x400
7001063c:	8200d044 	andhi	sp, r0, #68	@ 0x44
70010640:	82011c00 	andhi	r1, r1, #0, 24
70010644:	82014001 	andhi	r4, r1, #1
70010648:	82011c04 	andhi	r1, r1, #4, 24	@ 0x400
7001064c:	82014401 	andhi	r4, r1, #16777216	@ 0x1000000
70010650:	82011c28 	andhi	r1, r1, #40, 24	@ 0x2800
70010654:	82014801 	andhi	r4, r1, #65536	@ 0x10000
70010658:	82010780 	andhi	r0, r1, #128, 14	@ 0x2000000
7001065c:	82014c01 	andhi	r4, r1, #256	@ 0x100
70010660:	82010400 	andhi	r0, r1, #0, 8
70010664:	82015001 	andhi	r5, r1, #1
70010668:	82014000 	andhi	r4, r1, #0
7001066c:	82014080 	andhi	r4, r1, #128	@ 0x80
70010670:	82014100 	andhi	r4, r1, #0, 2
70010674:	80020a22 	andhi	r0, r2, r2, lsr #20
70010678:	82014180 	andhi	r4, r1, #128, 2
7001067c:	82014184 	andhi	r4, r1, #132, 2	@ 0x21
70010680:	82014188 	andhi	r4, r1, #136, 2	@ 0x22
70010684:	8201418c 	andhi	r4, r1, #140, 2	@ 0x23
70010688:	82014280 	andhi	r4, r1, #128, 4
7001068c:	80210832 	eorhi	r0, r1, r2, lsr r8
70010690:	82014400 	andhi	r4, r1, #0, 8
70010694:	80310832 	eorshi	r0, r1, r2, lsr r8
70010698:	82014840 	andhi	r4, r1, #64, 16	@ 0x400000
7001069c:	70a10831 	adcvc	r0, r1, r1, lsr r8
700106a0:	82014c00 	andhi	r4, r1, #0, 24
700106a4:	82014c04 	andhi	r4, r1, #4, 24	@ 0x400
700106a8:	82015044 	andhi	r5, r1, #68	@ 0x44

Desensamblado de la sección reset_vector:

70000000 <__reset_start__>:
70000000:	e59ff018 	ldr	pc, [pc, #24]	@ 70000020 <jump_reset>
70000004:	e59ff018 	ldr	pc, [pc, #24]	@ 70000024 <jump_undef_handler>
70000008:	e59ff018 	ldr	pc, [pc, #24]	@ 70000028 <jump_svc_handler>
7000000c:	e59ff018 	ldr	pc, [pc, #24]	@ 7000002c <jump_prefetch_abort_handler>
70000010:	e59ff018 	ldr	pc, [pc, #24]	@ 70000030 <jump_data_abort_handler>
70000014:	e59ff018 	ldr	pc, [pc, #24]	@ 70000034 <jump_reserved_handler>
70000018:	e59ff018 	ldr	pc, [pc, #24]	@ 70000038 <jump_irq_handler>
7000001c:	e59ff018 	ldr	pc, [pc, #24]	@ 7000003c <jump_fiq_handler>

70000020 <jump_reset>:
70000020:	70000144 	andvc	r0, r0, r4, asr #2

70000024 <jump_undef_handler>:
70000024:	7000014c 	andvc	r0, r0, ip, asr #2

70000028 <jump_svc_handler>:
70000028:	70000150 	andvc	r0, r0, r0, asr r1

7000002c <jump_prefetch_abort_handler>:
7000002c:	70000154 	andvc	r0, r0, r4, asr r1

70000030 <jump_data_abort_handler>:
70000030:	7000018c 	andvc	r0, r0, ip, lsl #3

70000034 <jump_reserved_handler>:
70000034:	700001ac 	andvc	r0, r0, ip, lsr #3

70000038 <jump_irq_handler>:
70000038:	70000068 	andvc	r0, r0, r8, rrx

7000003c <jump_fiq_handler>:
7000003c:	70000148 	andvc	r0, r0, r8, asr #2

70000040 <init_timer0>:
70000040:	e59f0168 	ldr	r0, [pc, #360]	@ 700001b0 <reserved_handler+0x4>
70000044:	e59f1168 	ldr	r1, [pc, #360]	@ 700001b4 <reserved_handler+0x8>
70000048:	e5810000 	str	r0, [r1]
7000004c:	e59f1164 	ldr	r1, [pc, #356]	@ 700001b8 <reserved_handler+0xc>
70000050:	e3a000ea 	mov	r0, #234	@ 0xea
70000054:	e5810000 	str	r0, [r1]
70000058:	e59f115c 	ldr	r1, [pc, #348]	@ 700001bc <reserved_handler+0x10>
7000005c:	e3a00001 	mov	r0, #1
70000060:	e5810000 	str	r0, [r1]
70000064:	e12fff1e 	bx	lr

70000068 <irq_handler>:
70000068:	e24ee004 	sub	lr, lr, #4
7000006c:	e52de004 	push	{lr}		@ (str lr, [sp, #-4]!)
70000070:	e92d1fff 	push	{r0, r1, r2, r3, r4, r5, r6, r7, r8, r9, sl, fp, ip}
70000074:	e14f0000 	mrs	r0, SPSR
70000078:	e52d0004 	push	{r0}		@ (str r0, [sp, #-4]!)
7000007c:	e59f0138 	ldr	r0, [pc, #312]	@ 700001bc <reserved_handler+0x10>
70000080:	e3a01001 	mov	r1, #1
70000084:	e5801000 	str	r1, [r0]
70000088:	e59f2130 	ldr	r2, [pc, #304]	@ 700001c0 <reserved_handler+0x14>
7000008c:	e5920000 	ldr	r0, [r2]
70000090:	e3500000 	cmp	r0, #0
70000094:	0a000008 	beq	700000bc <run_task1>
70000098:	e3500001 	cmp	r0, #1
7000009c:	0a00000d 	beq	700000d8 <run_task2>
700000a0:	e3a00482 	mov	r0, #-2113929216	@ 0x82000000
700000a4:	e59f3118 	ldr	r3, [pc, #280]	@ 700001c4 <reserved_handler+0x18>
700000a8:	e3a04003 	mov	r4, #3
700000ac:	e3a05000 	mov	r5, #0
700000b0:	e5825000 	str	r5, [r2]
700000b4:	eb00001e 	bl	70000134 <timer80ms>
700000b8:	ea00000c 	b	700000f0 <change_ttbr0>

700000bc <run_task1>:
700000bc:	e59f0104 	ldr	r0, [pc, #260]	@ 700001c8 <reserved_handler+0x1c>
700000c0:	e59f3104 	ldr	r3, [pc, #260]	@ 700001cc <reserved_handler+0x20>
700000c4:	e3a04001 	mov	r4, #1
700000c8:	e3a05001 	mov	r5, #1
700000cc:	e5825000 	str	r5, [r2]
700000d0:	eb000013 	bl	70000124 <timer10ms>
700000d4:	ea000005 	b	700000f0 <change_ttbr0>

700000d8 <run_task2>:
700000d8:	e59f00f0 	ldr	r0, [pc, #240]	@ 700001d0 <reserved_handler+0x24>
700000dc:	e59f30f0 	ldr	r3, [pc, #240]	@ 700001d4 <reserved_handler+0x28>
700000e0:	e3a04002 	mov	r4, #2
700000e4:	e3a05003 	mov	r5, #3
700000e8:	e5825000 	str	r5, [r2]
700000ec:	eb00000c 	bl	70000124 <timer10ms>

700000f0 <change_ttbr0>:
700000f0:	f57ff04f 	dsb	sy
700000f4:	ee020f10 	mcr	15, 0, r0, cr2, cr0, {0}
700000f8:	f57ff06f 	isb	sy
700000fc:	ee0d4f30 	mcr	15, 0, r4, cr13, cr0, {1}
70000100:	f57ff06f 	isb	sy
70000104:	e1a0d003 	mov	sp, r3
70000108:	e49d0004 	pop	{r0}		@ (ldr r0, [sp], #4)
7000010c:	e169f000 	msr	SPSR_fc, r0
70000110:	e8bd1fff 	pop	{r0, r1, r2, r3, r4, r5, r6, r7, r8, r9, sl, fp, ip}
70000114:	e49de004 	pop	{lr}		@ (ldr lr, [sp], #4)
70000118:	f57ff04f 	dsb	sy
7000011c:	f57ff06f 	isb	sy
70000120:	e1b0f00e 	movs	pc, lr

70000124 <timer10ms>:
70000124:	e59f6084 	ldr	r6, [pc, #132]	@ 700001b0 <reserved_handler+0x4>
70000128:	e59f1084 	ldr	r1, [pc, #132]	@ 700001b4 <reserved_handler+0x8>
7000012c:	e5816000 	str	r6, [r1]
70000130:	e12fff1e 	bx	lr

70000134 <timer80ms>:
70000134:	e59f609c 	ldr	r6, [pc, #156]	@ 700001d8 <reserved_handler+0x2c>
70000138:	e59f1074 	ldr	r1, [pc, #116]	@ 700001b4 <reserved_handler+0x8>
7000013c:	e5816000 	str	r6, [r1]
70000140:	e12fff1e 	bx	lr

70000144 <reset_handler>:
70000144:	eafffffe 	b	70000144 <reset_handler>

70000148 <fiq_handler>:
70000148:	eafffffe 	b	70000148 <fiq_handler>

7000014c <undef_handler>:
7000014c:	eafffffe 	b	7000014c <undef_handler>

70000150 <svc_handler>:
70000150:	eafffffe 	b	70000150 <svc_handler>

70000154 <prefetch_abort_handler>:
70000154:	ee160f50 	mrc	15, 0, r0, cr6, cr0, {2}
70000158:	ee151f30 	mrc	15, 0, r1, cr5, cr0, {1}
7000015c:	e201200f 	and	r2, r1, #15
70000160:	e1a03521 	lsr	r3, r1, #10
70000164:	e2033001 	and	r3, r3, #1
70000168:	e1a03203 	lsl	r3, r3, #4
7000016c:	e1822003 	orr	r2, r2, r3
70000170:	e59f4064 	ldr	r4, [pc, #100]	@ 700001dc <reserved_handler+0x30>
70000174:	e5840000 	str	r0, [r4]
70000178:	e59f4060 	ldr	r4, [pc, #96]	@ 700001e0 <reserved_handler+0x34>
7000017c:	e5842000 	str	r2, [r4]
70000180:	e59f405c 	ldr	r4, [pc, #92]	@ 700001e4 <reserved_handler+0x38>
70000184:	e5841000 	str	r1, [r4]
70000188:	eafffffe 	b	70000188 <prefetch_abort_handler+0x34>

7000018c <data_abort_handler>:
7000018c:	e24ee008 	sub	lr, lr, #8
70000190:	ee160f10 	mrc	15, 0, r0, cr6, cr0, {0}
70000194:	ee151f10 	mrc	15, 0, r1, cr5, cr0, {0}
70000198:	e59f2048 	ldr	r2, [pc, #72]	@ 700001e8 <reserved_handler+0x3c>
7000019c:	e5820000 	str	r0, [r2]
700001a0:	e59f2044 	ldr	r2, [pc, #68]	@ 700001ec <reserved_handler+0x40>
700001a4:	e5821000 	str	r1, [r2]
700001a8:	eafffff7 	b	7000018c <data_abort_handler>

700001ac <reserved_handler>:
700001ac:	eafffffe 	b	700001ac <reserved_handler>
700001b0:	00000f42 	andeq	r0, r0, r2, asr #30
700001b4:	10011000 	andne	r1, r1, r0
700001b8:	10011008 	andne	r1, r1, r8
700001bc:	1001100c 	andne	r1, r1, ip
700001c0:	70020000 	andvc	r0, r2, r0
700001c4:	70061300 	andvc	r1, r6, r0, lsl #6
700001c8:	82008000 	andhi	r8, r0, #0
700001cc:	70062300 	andvc	r2, r6, r0, lsl #6
700001d0:	82010000 	andhi	r0, r1, #0
700001d4:	70063300 	andvc	r3, r6, r0, lsl #6
700001d8:	00007a12 	andeq	r7, r0, r2, lsl sl
700001dc:	81000008 	tsthi	r0, r8
700001e0:	8100000c 	tsthi	r0, ip
700001e4:	81000010 	tsthi	r0, r0, lsl r0
700001e8:	81000000 	mrshi	r0, (UNDEF: 0)
700001ec:	81000004 	tsthi	r0, r4

Desensamblado de la sección .text:

70030000 <__text_start__>:
70030000:	e320f003 	wfi
70030004:	eafffffd 	b	70030000 <__text_start__>

70030008 <init_vms>:
70030008:	e59f0060 	ldr	r0, [pc, #96]	@ 70030070 <gic_init+0x2c>
7003000c:	ee030f10 	mcr	15, 0, r0, cr3, cr0, {0}
70030010:	ee120f50 	mrc	15, 0, r0, cr2, cr0, {2}
70030014:	e3800000 	orr	r0, r0, #0
70030018:	ee020f50 	mcr	15, 0, r0, cr2, cr0, {2}
7003001c:	e3a00482 	mov	r0, #-2113929216	@ 0x82000000
70030020:	ee020f10 	mcr	15, 0, r0, cr2, cr0, {0}
70030024:	e3a00000 	mov	r0, #0
70030028:	ee0d0f30 	mcr	15, 0, r0, cr13, cr0, {1}
7003002c:	f57ff06f 	isb	sy
70030030:	e3a00000 	mov	r0, #0
70030034:	ee080f17 	mcr	15, 0, r0, cr8, cr7, {0}
70030038:	f57ff04f 	dsb	sy
7003003c:	f57ff06f 	isb	sy
70030040:	e12fff1e 	bx	lr

70030044 <gic_init>:
70030044:	e3a0041e 	mov	r0, #503316480	@ 0x1e000000
70030048:	e3a010f0 	mov	r1, #240	@ 0xf0
7003004c:	e5801004 	str	r1, [r0, #4]
70030050:	e59f201c 	ldr	r2, [pc, #28]	@ 70030074 <gic_init+0x30>
70030054:	e5923104 	ldr	r3, [r2, #260]	@ 0x104
70030058:	e3833010 	orr	r3, r3, #16
7003005c:	e5823104 	str	r3, [r2, #260]	@ 0x104
70030060:	e3a01001 	mov	r1, #1
70030064:	e5801000 	str	r1, [r0]
70030068:	e5821000 	str	r1, [r2]
7003006c:	e12fff1e 	bx	lr
70030070:	55555555 	ldrbpl	r5, [r5, #-1365]	@ 0xfffffaab
70030074:	1e001000 	cdpne	0, 0, cr1, cr0, cr0, {0}

Desensamblado de la sección .data:

81000000 <__data_start__>:
81000000:	00000000 	andeq	r0, r0, r0

81000004 <debug_dfsr>:
81000004:	00000000 	andeq	r0, r0, r0

81000008 <debug_ifar>:
81000008:	00000000 	andeq	r0, r0, r0

8100000c <debug_ifsr_fs>:
8100000c:	00000000 	andeq	r0, r0, r0

81000010 <debug_ifsr_raw>:
81000010:	00000000 	andeq	r0, r0, r0

Desensamblado de la sección .task1_text:

70040000 <__t1_text_start__>:
70040000:	e59f0028 	ldr	r0, [pc, #40]	@ 70040030 <error+0x4>
70040004:	e59f1028 	ldr	r1, [pc, #40]	@ 70040034 <error+0x8>
70040008:	e59f2028 	ldr	r2, [pc, #40]	@ 70040038 <error+0xc>

7004000c <loop>:
7004000c:	e5802000 	str	r2, [r0]
70040010:	e5903000 	ldr	r3, [r0]
70040014:	e1530002 	cmp	r3, r2
70040018:	1a000003 	bne	7004002c <error>
7004001c:	e2800004 	add	r0, r0, #4
70040020:	e1500001 	cmp	r0, r1
70040024:	bafffff8 	blt	7004000c <loop>
70040028:	eafffff4 	b	70040000 <__t1_text_start__>

7004002c <error>:
7004002c:	eafffffe 	b	7004002c <error>
70040030:	70a00000 	adcvc	r0, r0, r0
70040034:	70a0ffff 	strdvc	pc, [r0], pc	@ <UNPREDICTABLE>
70040038:	55aa55aa 	strpl	r5, [sl, #1450]!	@ 0x5aa

Desensamblado de la sección .task2_text:

7004003c <__t2_text_start__>:
7004003c:	e59f001c 	ldr	r0, [pc, #28]	@ 70040060 <loop+0x1c>
70040040:	e59f101c 	ldr	r1, [pc, #28]	@ 70040064 <loop+0x20>

70040044 <loop>:
70040044:	e5902000 	ldr	r2, [r0]
70040048:	e1e03002 	mvn	r3, r2
7004004c:	e5803000 	str	r3, [r0]
70040050:	e2800004 	add	r0, r0, #4
70040054:	e1500001 	cmp	r0, r1
70040058:	bafffff9 	blt	70040044 <loop>
7004005c:	eafffff6 	b	7004003c <__t2_text_start__>
70040060:	70a10000 	adcvc	r0, r1, r0
70040064:	70a1ffff 	strdvc	pc, [r1], pc	@ <UNPREDICTABLE>

Desensamblado de la sección .task_data:

700a0000 <__data_task1_start__>:
700a0000:	70a00000 	adcvc	r0, r0, r0

700a0004 <__data_task1_end__>:
700a0004:	70a10000 	adcvc	r0, r1, r0
700a0008:	70a1ffff 	strdvc	pc, [r1], pc	@ <UNPREDICTABLE>

Desensamblado de la sección .shared_mem:

70020000 <__shared_mem_end__>:
70020000:	00000000 	andeq	r0, r0, r0

Desensamblado de la sección .ARM.attributes:

00000000 <.ARM.attributes>:
   0:	00001741 	andeq	r1, r0, r1, asr #14
   4:	61656100 	cmnvs	r5, r0, lsl #2
   8:	01006962 	tsteq	r0, r2, ror #18
   c:	0000000d 	andeq	r0, r0, sp
  10:	41070a06 	tstmi	r7, r6, lsl #20
  14:	02090108 	andeq	r0, r9, #8, 2

Desensamblado de la sección .debug_line:

00000000 <.debug_line>:
   0:	00000040 	andeq	r0, r0, r0, asr #32
   4:	001b0002 	andseq	r0, fp, r2
   8:	01020000 	mrseq	r0, (UNDEF: 2)
   c:	000a0efb 	strdeq	r0, [sl], -fp
  10:	01010101 	tsteq	r1, r1, lsl #2
  14:	01000000 	mrseq	r0, (UNDEF: 0)
  18:	73617400 	cmnvc	r1, #0, 8
  1c:	732e316b 			@ <UNDEFINED> instruction: 0x732e316b
  20:	00000000 	andeq	r0, r0, r0
  24:	02050000 	andeq	r0, r5, #0
  28:	70040000 	andvc	r0, r4, r0
  2c:	2c010a03 			@ <UNDEFINED> instruction: 0x2c010a03
  30:	2c2c2f2c 	stccs	15, cr2, [ip], #-176	@ 0xffffff50
  34:	2c2c2c2c 	stccs	12, cr2, [ip], #-176	@ 0xffffff50
  38:	71032d2c 	tstvc	r3, ip, lsr #26
  3c:	022c2c2b 	eoreq	r2, ip, #11008	@ 0x2b00
  40:	01010002 	tsteq	r1, r2
  44:	0000003c 	andeq	r0, r0, ip, lsr r0
  48:	001b0002 	andseq	r0, fp, r2
  4c:	01020000 	mrseq	r0, (UNDEF: 2)
  50:	000a0efb 	strdeq	r0, [sl], -fp
  54:	01010101 	tsteq	r1, r1, lsl #2
  58:	01000000 	mrseq	r0, (UNDEF: 0)
  5c:	73617400 	cmnvc	r1, #0, 8
  60:	732e326b 			@ <UNDEFINED> instruction: 0x732e326b
  64:	00000000 	andeq	r0, r0, r0
  68:	02050000 	andeq	r0, r5, #0
  6c:	7004003c 	andvc	r0, r4, ip, lsr r0
  70:	2c010a03 			@ <UNDEFINED> instruction: 0x2c010a03
  74:	2c2c2c2e 	stccs	12, cr2, [ip], #-184	@ 0xffffff48
  78:	032c2c2c 			@ <UNDEFINED> instruction: 0x032c2c2c
  7c:	022c2b76 	eoreq	r2, ip, #120832	@ 0x1d800
  80:	01010002 	tsteq	r1, r2
  84:	000002b3 			@ <UNDEFINED> instruction: 0x000002b3
  88:	001a0002 	andseq	r0, sl, r2
  8c:	01020000 	mrseq	r0, (UNDEF: 2)
  90:	000a0efb 	strdeq	r0, [sl], -fp
  94:	01010101 	tsteq	r1, r1, lsl #2
  98:	01000000 	mrseq	r0, (UNDEF: 0)
  9c:	30707400 	rsbscc	r7, r0, r0, lsl #8
  a0:	00732e37 	rsbseq	r2, r3, r7, lsr lr
  a4:	00000000 	andeq	r0, r0, r0
  a8:	00020500 	andeq	r0, r2, r0, lsl #10
  ac:	03700100 	cmneq	r0, #0, 2
  b0:	2e0100ee 	cdpcs	0, 0, cr0, cr1, cr14, {7}
  b4:	2c2e2c2c 	stccs	12, cr2, [lr], #-176	@ 0xffffff50
  b8:	2c2c2c2d 	stccs	12, cr2, [ip], #-180	@ 0xffffff4c
  bc:	2e2c2c2d 	cdpcs	12, 2, cr2, cr12, cr13, {1}
  c0:	2e2c2c2e 	cdpcs	12, 2, cr2, cr12, cr14, {1}
  c4:	2c2c2d2c 	stccs	13, cr2, [ip], #-176	@ 0xffffff50
  c8:	2c2c2d2c 	stccs	13, cr2, [ip], #-176	@ 0xffffff50
  cc:	2c2c2e2d 	stccs	14, cr2, [ip], #-180	@ 0xffffff4c
  d0:	2c2d2c2e 	stccs	12, cr2, [sp], #-184	@ 0xffffff48
  d4:	2c2d2c2c 	stccs	12, cr2, [sp], #-176	@ 0xffffff50
  d8:	2e2c312c 	sufcsep	f3, f4, #4.0
  dc:	2e2c2e2c 	cdpcs	14, 2, cr2, cr12, cr12, {1}
  e0:	2e2c2e2c 	cdpcs	14, 2, cr2, cr12, cr12, {1}
  e4:	2c2c2d2c 	stccs	13, cr2, [ip], #-176	@ 0xffffff50
  e8:	2c2c2e2c 	stccs	14, cr2, [ip], #-176	@ 0xffffff50
  ec:	2c2c2e2c 	stccs	14, cr2, [ip], #-176	@ 0xffffff50
  f0:	2c2c2e2c 	stccs	14, cr2, [ip], #-176	@ 0xffffff50
  f4:	2c2c2e2c 	stccs	14, cr2, [ip], #-176	@ 0xffffff50
  f8:	2c2c2e2c 	stccs	14, cr2, [ip], #-176	@ 0xffffff50
  fc:	2c2c2e2c 	stccs	14, cr2, [ip], #-176	@ 0xffffff50
 100:	2c2e2c2c 	stccs	12, cr2, [lr], #-176	@ 0xffffff50
 104:	2c2e2c2c 	stccs	12, cr2, [lr], #-176	@ 0xffffff50
 108:	2e2c2c2c 	cdpcs	12, 2, cr2, cr12, cr12, {1}
 10c:	2e2c2c2c 	cdpcs	12, 2, cr2, cr12, cr12, {1}
 110:	2c2c2c2c 	stccs	12, cr2, [ip], #-176	@ 0xffffff50
 114:	2c2c2c2e 	stccs	12, cr2, [ip], #-184	@ 0xffffff48
 118:	2c2c2c2e 	stccs	12, cr2, [ip], #-184	@ 0xffffff48
 11c:	2c2c2e2c 	stccs	14, cr2, [ip], #-176	@ 0xffffff50
 120:	2c2c312c 	stfcss	f3, [ip], #-176	@ 0xffffff50
 124:	2f2c2c2d 	svccs	0x002c2c2d
 128:	2c2d2c2c 	stccs	12, cr2, [sp], #-176	@ 0xffffff50
 12c:	2c2c2d2c 	stccs	13, cr2, [ip], #-176	@ 0xffffff50
 130:	2d2c2c2d 	stccs	12, cr2, [ip, #-180]!	@ 0xffffff4c
 134:	2c2f2c2c 	stccs	12, cr2, [pc], #-176	@ 8c <TIMER0_IRQ_ID+0x68>
 138:	2c2c2d2c 	stccs	13, cr2, [ip], #-176	@ 0xffffff50
 13c:	2d2c2c2d 	stccs	12, cr2, [ip, #-180]!	@ 0xffffff4c
 140:	2c2d2c2c 	stccs	12, cr2, [sp], #-176	@ 0xffffff50
 144:	2c2c2d2c 	stccs	13, cr2, [ip], #-176	@ 0xffffff50
 148:	2d2c2c2d 	stccs	12, cr2, [ip, #-180]!	@ 0xffffff4c
 14c:	2c2d2c2c 	stccs	12, cr2, [sp], #-176	@ 0xffffff50
 150:	2c2c2d2c 	stccs	13, cr2, [ip], #-176	@ 0xffffff50
 154:	2d2c2c2d 	stccs	12, cr2, [ip, #-180]!	@ 0xffffff4c
 158:	2c2e2c2c 	stccs	12, cr2, [lr], #-176	@ 0xffffff50
 15c:	2c2c2d2c 	stccs	13, cr2, [ip], #-176	@ 0xffffff50
 160:	2d2c2c30 	stccs	12, cr2, [ip, #-192]!	@ 0xffffff40
 164:	2c2d2c2c 	stccs	12, cr2, [sp], #-176	@ 0xffffff50
 168:	2c2c2d2c 	stccs	13, cr2, [ip], #-176	@ 0xffffff50
 16c:	2f2c2c2d 	svccs	0x002c2c2d
 170:	2c2d2c2c 	stccs	12, cr2, [sp], #-176	@ 0xffffff50
 174:	2c2c2d2c 	stccs	13, cr2, [ip], #-176	@ 0xffffff50
 178:	2d2c2c2d 	stccs	12, cr2, [ip, #-180]!	@ 0xffffff4c
 17c:	2c2d2c2c 	stccs	12, cr2, [sp], #-176	@ 0xffffff50
 180:	2c2c2d2c 	stccs	13, cr2, [ip], #-176	@ 0xffffff50
 184:	2e2c2c2d 	cdpcs	12, 2, cr2, cr12, cr13, {1}
 188:	2c2d2c2c 	stccs	12, cr2, [sp], #-176	@ 0xffffff50
 18c:	2c2c2d2c 	stccs	13, cr2, [ip], #-176	@ 0xffffff50
 190:	2e2c2c2d 	cdpcs	12, 2, cr2, cr12, cr13, {1}
 194:	2c2d2c2c 	stccs	12, cr2, [sp], #-176	@ 0xffffff50
 198:	2c2c312c 	stfcss	f3, [ip], #-176	@ 0xffffff50
 19c:	2d2c2c2d 	stccs	12, cr2, [ip, #-180]!	@ 0xffffff4c
 1a0:	2c2d2c2c 	stccs	12, cr2, [sp], #-176	@ 0xffffff50
 1a4:	2c2c2d2c 	stccs	13, cr2, [ip], #-176	@ 0xffffff50
 1a8:	2d2c2c2f 	stccs	12, cr2, [ip, #-188]!	@ 0xffffff44
 1ac:	2c2d2c2c 	stccs	12, cr2, [sp], #-176	@ 0xffffff50
 1b0:	2c2c2d2c 	stccs	13, cr2, [ip], #-176	@ 0xffffff50
 1b4:	2d2c2c2d 	stccs	12, cr2, [ip, #-180]!	@ 0xffffff4c
 1b8:	2c2d2c2c 	stccs	12, cr2, [sp], #-176	@ 0xffffff50
 1bc:	2c2c2d2c 	stccs	13, cr2, [ip], #-176	@ 0xffffff50
 1c0:	2d2c2c2d 	stccs	12, cr2, [ip, #-180]!	@ 0xffffff4c
 1c4:	2c2d2c2c 	stccs	12, cr2, [sp], #-176	@ 0xffffff50
 1c8:	2c2c2d2c 	stccs	13, cr2, [ip], #-176	@ 0xffffff50
 1cc:	2d2c2c2d 	stccs	12, cr2, [ip, #-180]!	@ 0xffffff4c
 1d0:	2e302c2c 	cdpcs	12, 3, cr2, cr0, cr12, {1}
 1d4:	2d2c2c2c 	stccs	12, cr2, [ip, #-176]!	@ 0xffffff50
 1d8:	2d2d2c2c 	stccs	12, cr2, [sp, #-176]!	@ 0xffffff50
 1dc:	ba032d2d 	blt	cb698 <longitud_tablas+0xb3698>
 1e0:	11032b7c 	tstne	r3, ip, ror fp
 1e4:	14032f2b 	strne	r2, [r3], #-3883	@ 0xfffff0d5
 1e8:	2b11032b 	blcs	440e9c <longitud_tablas+0x428e9c>
 1ec:	2f2f2f33 	svccs	0x002f2f33
 1f0:	2c2d2f2f 	stccs	15, cr2, [sp], #-188	@ 0xffffff44
 1f4:	2b0a032c 	blcs	280eac <longitud_tablas+0x268eac>
 1f8:	0a032c2c 	beq	cb2b0 <longitud_tablas+0xb32b0>
 1fc:	032c2c2b 			@ <UNDEFINED> instruction: 0x032c2c2b
 200:	2c2c2b0a 			@ <UNDEFINED> instruction: 0x2c2c2b0a
 204:	2b0a032c 	blcs	280ebc <longitud_tablas+0x268ebc>
 208:	032c2c2c 			@ <UNDEFINED> instruction: 0x032c2c2c
 20c:	2c2c2b0a 			@ <UNDEFINED> instruction: 0x2c2c2b0a
 210:	2b0a032c 	blcs	280ec8 <longitud_tablas+0x268ec8>
 214:	032c2c2c 			@ <UNDEFINED> instruction: 0x032c2c2c
 218:	2e2c2b17 	vmovcs.32	d12[1], r2
 21c:	2e2c2e2c 	cdpcs	14, 2, cr2, cr12, cr12, {1}
 220:	302c2e2c 	eorcc	r2, ip, ip, lsr #28
 224:	2e2c2e2c 	cdpcs	14, 2, cr2, cr12, cr12, {1}
 228:	2e2c2e2c 	cdpcs	14, 2, cr2, cr12, cr12, {1}
 22c:	2e2c2e2c 	cdpcs	14, 2, cr2, cr12, cr12, {1}
 230:	2e2c2e2c 	cdpcs	14, 2, cr2, cr12, cr12, {1}
 234:	322c2e2c 	eorcc	r2, ip, #44, 28	@ 0x2c0
 238:	2e2c2f2c 	cdpcs	15, 2, cr2, cr12, cr12, {1}
 23c:	2e2c312c 	sufcsep	f3, f4, #4.0
 240:	2e2c2e2c 	cdpcs	14, 2, cr2, cr12, cr12, {1}
 244:	302c2e2c 	eorcc	r2, ip, ip, lsr #28
 248:	2c2e2c2f 	stccs	12, cr2, [lr], #-188	@ 0xffffff44
 24c:	2f2f2f2e 	svccs	0x002f2f2e
 250:	2c2f2c2f 	stccs	12, cr2, [pc], #-188	@ 19c <TIMER0_IRQ_ID+0x178>
 254:	30322c2e 	eorscc	r2, r2, lr, lsr #24
 258:	2e2c332f 	cdpcs	3, 2, cr3, cr12, cr15, {1}
 25c:	2e2c2e2c 	cdpcs	14, 2, cr2, cr12, cr12, {1}
 260:	302c2e2c 	eorcc	r2, ip, ip, lsr #28
 264:	2e2c2f2f 	cdpcs	15, 2, cr2, cr12, cr15, {1}
 268:	2f2f2f2f 	svccs	0x002f2f2f
 26c:	2e2c2e2c 	cdpcs	14, 2, cr2, cr12, cr12, {1}
 270:	2f2f322c 	svccs	0x002f322c
 274:	01000202 	tsteq	r0, r2, lsl #4
 278:	02050001 	andeq	r0, r5, #1
 27c:	70030000 	andvc	r0, r3, r0
 280:	0104b803 	tsteq	r4, r3, lsl #16
 284:	312c312c 			@ <UNDEFINED> instruction: 0x312c312c
 288:	2c2d2c2c 	stccs	12, cr2, [sp], #-176	@ 0xffffff50
 28c:	2d2c2c2d 	stccs	12, cr2, [ip, #-180]!	@ 0xffffff4c
 290:	2d2c2c2c 	stccs	12, cr2, [ip, #-176]!	@ 0xffffff50
 294:	2d2c2c2f 	stccs	12, cr2, [ip, #-188]!	@ 0xffffff44
 298:	322c2c2c 	eorcc	r2, ip, #44, 24	@ 0x2c00
 29c:	032d2c2c 			@ <UNDEFINED> instruction: 0x032d2c2c
 2a0:	1f032b53 	svcne	0x00032b53
 2a4:	0002022b 	andeq	r0, r2, fp, lsr #4
 2a8:	05000101 	streq	r0, [r0, #-257]	@ 0xfffffeff
 2ac:	00000002 	andeq	r0, r0, r2
 2b0:	04f10370 	ldrbteq	r0, [r1], #880	@ 0x370
 2b4:	2c2c2c01 	stccs	12, cr2, [ip], #-4
 2b8:	2c2c2c2c 	stccs	12, cr2, [ip], #-176	@ 0xffffff50
 2bc:	1d081503 	cfstr32ne	mvfx1, [r8, #-12]
 2c0:	2c2d2c2c 	stccs	12, cr2, [sp], #-176	@ 0xffffff50
 2c4:	2c2c2e2c 	stccs	14, cr2, [ip], #-176	@ 0xffffff50
 2c8:	2c2c2e2d 	stccs	14, cr2, [ip], #-180	@ 0xffffff4c
 2cc:	2c2d2c2c 	stccs	12, cr2, [sp], #-176	@ 0xffffff50
 2d0:	2c2c2d2c 	stccs	13, cr2, [ip], #-176	@ 0xffffff50
 2d4:	2c2c2c2c 	stccs	12, cr2, [ip], #-176	@ 0xffffff50
 2d8:	2c2c2c2c 	stccs	12, cr2, [ip], #-176	@ 0xffffff50
 2dc:	2c2e2c2c 	stccs	12, cr2, [lr], #-176	@ 0xffffff50
 2e0:	2c2c2c2c 	stccs	12, cr2, [ip], #-176	@ 0xffffff50
 2e4:	2c2c2d2c 	stccs	13, cr2, [ip], #-176	@ 0xffffff50
 2e8:	2e2c2c2c 	cdpcs	12, 2, cr2, cr12, cr12, {1}
 2ec:	2c2c2c2c 	stccs	12, cr2, [ip], #-176	@ 0xffffff50
 2f0:	2c2c2d2d 	stccs	13, cr2, [ip], #-180	@ 0xffffff4c
 2f4:	2c2c2c2c 	stccs	12, cr2, [ip], #-176	@ 0xffffff50
 2f8:	2c2c2c2f 	stccs	12, cr2, [ip], #-188	@ 0xffffff44
 2fc:	2c2c2c2e 	stccs	12, cr2, [ip], #-184	@ 0xffffff48
 300:	2e2e2e2f 	cdpcs	14, 2, cr2, cr14, cr15, {1}
 304:	2c2e2e2f 	stccs	14, cr2, [lr], #-188	@ 0xffffff44
 308:	2e2c2c2c 	cdpcs	12, 2, cr2, cr12, cr12, {1}
 30c:	2e2c2c2c 	cdpcs	12, 2, cr2, cr12, cr12, {1}
 310:	2c2e2e2c 	stccs	14, cr2, [lr], #-176	@ 0xffffff50
 314:	2d2c2d2c 	stccs	13, cr2, [ip, #-176]!	@ 0xffffff50
 318:	032e2c2c 			@ <UNDEFINED> instruction: 0x032e2c2c
 31c:	2c2b7ef5 	stccs	14, cr7, [fp], #-980	@ 0xfffffc2c
 320:	1103302e 	tstne	r3, lr, lsr #32
 324:	2c33322b 	lfmcs	f3, 4, [r3], #-172	@ 0xffffff54
 328:	1f032c32 	svcne	0x00032c32
 32c:	2b21032b 	blcs	840fe0 <longitud_tablas+0x828fe0>
 330:	0b032f2d 	bleq	cbfec <longitud_tablas+0xb3fec>
 334:	02022e2b 	andeq	r2, r2, #688	@ 0x2b0
 338:	Address 0x338 is out of bounds.


Desensamblado de la sección .debug_info:

00000000 <.debug_info>:
   0:	00000022 	andeq	r0, r0, r2, lsr #32
   4:	00000002 	andeq	r0, r0, r2
   8:	01040000 	mrseq	r0, (UNDEF: 4)
   c:	00000000 	andeq	r0, r0, r0
  10:	70040000 	andvc	r0, r4, r0
  14:	7004003c 	andvc	r0, r4, ip, lsr r0
  18:	00000000 	andeq	r0, r0, r0
  1c:	00000008 	andeq	r0, r0, r8
  20:	00000031 	andeq	r0, r0, r1, lsr r0
  24:	00228001 	eoreq	r8, r2, r1
  28:	00020000 	andeq	r0, r2, r0
  2c:	00000014 	andeq	r0, r0, r4, lsl r0
  30:	00440104 	subeq	r0, r4, r4, lsl #2
  34:	003c0000 	eorseq	r0, ip, r0
  38:	00687004 	rsbeq	r7, r8, r4
  3c:	003d7004 	eorseq	r7, sp, r4
  40:	00080000 	andeq	r0, r8, r0
  44:	00310000 	eorseq	r0, r1, r0
  48:	80010000 	andhi	r0, r1, r0
  4c:	0000001e 	andeq	r0, r0, lr, lsl r0
  50:	00280002 	eoreq	r0, r8, r2
  54:	01040000 	mrseq	r0, (UNDEF: 4)
  58:	00000084 	andeq	r0, r0, r4, lsl #1
  5c:	00000000 	andeq	r0, r0, r0
  60:	00000045 	andeq	r0, r0, r5, asr #32
  64:	00000008 	andeq	r0, r0, r8
  68:	00000031 	andeq	r0, r0, r1, lsr r0
  6c:	Address 0x6c is out of bounds.


Desensamblado de la sección .debug_abbrev:

00000000 <.debug_abbrev>:
   0:	10001101 	andne	r1, r0, r1, lsl #2
   4:	12011106 	andne	r1, r1, #-2147483647	@ 0x80000001
   8:	1b0e0301 	blne	380c14 <longitud_tablas+0x368c14>
   c:	130e250e 	movwne	r2, #58638	@ 0xe50e
  10:	00000005 	andeq	r0, r0, r5
  14:	10001101 	andne	r1, r0, r1, lsl #2
  18:	12011106 	andne	r1, r1, #-2147483647	@ 0x80000001
  1c:	1b0e0301 	blne	380c28 <longitud_tablas+0x368c28>
  20:	130e250e 	movwne	r2, #58638	@ 0xe50e
  24:	00000005 	andeq	r0, r0, r5
  28:	10001101 	andne	r1, r0, r1, lsl #2
  2c:	03065506 	movweq	r5, #25862	@ 0x6506
  30:	250e1b0e 	strcs	r1, [lr, #-2830]	@ 0xfffff4f2
  34:	0005130e 	andeq	r1, r5, lr, lsl #6
	...

Desensamblado de la sección .debug_aranges:

00000000 <.debug_aranges>:
   0:	0000001c 	andeq	r0, r0, ip, lsl r0
   4:	00000002 	andeq	r0, r0, r2
   8:	00040000 	andeq	r0, r4, r0
   c:	00000000 	andeq	r0, r0, r0
  10:	70040000 	andvc	r0, r4, r0
  14:	0000003c 	andeq	r0, r0, ip, lsr r0
	...
  20:	0000001c 	andeq	r0, r0, ip, lsl r0
  24:	00260002 	eoreq	r0, r6, r2
  28:	00040000 	andeq	r0, r4, r0
  2c:	00000000 	andeq	r0, r0, r0
  30:	7004003c 	andvc	r0, r4, ip, lsr r0
  34:	0000002c 	andeq	r0, r0, ip, lsr #32
	...
  40:	0000002c 	andeq	r0, r0, ip, lsr #32
  44:	004c0002 	subeq	r0, ip, r2
  48:	00040000 	andeq	r0, r4, r0
  4c:	00000000 	andeq	r0, r0, r0
  50:	70010000 	andvc	r0, r1, r0
  54:	000006ac 	andeq	r0, r0, ip, lsr #13
  58:	70030000 	andvc	r0, r3, r0
  5c:	00000078 	andeq	r0, r0, r8, ror r0
  60:	70000000 	andvc	r0, r0, r0
  64:	000001f0 	strdeq	r0, [r0], -r0	@ <UNPREDICTABLE>
	...

Desensamblado de la sección .debug_str:

00000000 <.debug_str>:
   0:	6b736174 	blvs	1cd85d8 <longitud_tablas+0x1cc05d8>
   4:	00732e31 	rsbseq	r2, r3, r1, lsr lr
   8:	6d6f682f 	stclvs	8, cr6, [pc, #-188]!	@ ffffff54 <tabla_segundo_nivel_tarea2_4+0x7dfeaf54>
   c:	646d2f65 	strbtvs	r2, [sp], #-3941	@ 0xfffff09b
  10:	6373452f 	cmnvs	r3, #197132288	@ 0xbc00000
  14:	6f746972 	svcvs	0x00746972
  18:	2f6f6972 	svccs	0x006f6972
  1c:	635f3130 	cmpvs	pc, #48, 2
  20:	2f746175 	svccs	0x00746175
  24:	2f334454 	svccs	0x00334454
  28:	305f7074 	subscc	r7, pc, r4, ror r0	@ <UNPREDICTABLE>
  2c:	37305f31 			@ <UNDEFINED> instruction: 0x37305f31
  30:	554e4700 	strbpl	r4, [lr, #-1792]	@ 0xfffff900
  34:	20534120 	subscs	r4, r3, r0, lsr #2
  38:	32342e32 	eorscc	r2, r4, #800	@ 0x320
  3c:	73617400 	cmnvc	r1, #0, 8
  40:	732e326b 			@ <UNDEFINED> instruction: 0x732e326b
  44:	30707400 	rsbscc	r7, r0, r0, lsl #8
  48:	00732e37 	rsbseq	r2, r3, r7, lsr lr

Desensamblado de la sección .debug_ranges:

00000000 <.debug_ranges>:
   0:	ffffffff 			@ <UNDEFINED> instruction: 0xffffffff
   4:	00000000 	andeq	r0, r0, r0
   8:	70010000 	andvc	r0, r1, r0
   c:	700106ac 	andvc	r0, r1, ip, lsr #13
  10:	70030000 	andvc	r0, r3, r0
  14:	70030078 	andvc	r0, r3, r8, ror r0
  18:	70000000 	andvc	r0, r0, r0
  1c:	700001f0 	strdvc	r0, [r0], -r0	@ <UNPREDICTABLE>
	...
